ARM GAS  C:\Users\Jason\AppData\Local\Temp\cc7xyQyF.s 			page 1


   1              		.syntax unified
   2              		.cpu cortex-m0
   3              		.fpu softvfp
   4              		.eabi_attribute 20, 1
   5              		.eabi_attribute 21, 1
   6              		.eabi_attribute 23, 3
   7              		.eabi_attribute 24, 1
   8              		.eabi_attribute 25, 1
   9              		.eabi_attribute 26, 1
  10              		.eabi_attribute 30, 6
  11              		.eabi_attribute 34, 0
  12              		.eabi_attribute 18, 4
  13              		.thumb
  14              		.syntax unified
  15              		.file	"CyLib.c"
  16              		.text
  17              	.Ltext0:
  18              		.cfi_sections	.debug_frame
  19              		.global	cydelayFreqHz
  20              		.data
  21              		.align	2
  22              		.type	cydelayFreqHz, %object
  23              		.size	cydelayFreqHz, 4
  24              	cydelayFreqHz:
  25 0000 00366E01 		.word	24000000
  26              		.global	cydelayFreqKhz
  27              		.align	2
  28              		.type	cydelayFreqKhz, %object
  29              		.size	cydelayFreqKhz, 4
  30              	cydelayFreqKhz:
  31 0004 C05D0000 		.word	24000
  32              		.global	cydelayFreqMhz
  33              		.type	cydelayFreqMhz, %object
  34              		.size	cydelayFreqMhz, 1
  35              	cydelayFreqMhz:
  36 0008 18       		.byte	24
  37              		.global	cydelay32kMs
  38 0009 000000   		.align	2
  39              		.type	cydelay32kMs, %object
  40              		.size	cydelay32kMs, 4
  41              	cydelay32kMs:
  42 000c 0000E02E 		.word	786432000
  43              		.bss
  44              		.align	2
  45              	CySysTickCallbacks:
  46 0000 00000000 		.space	20
  46      00000000 
  46      00000000 
  46      00000000 
  46      00000000 
  47              		.global	CySysTickInitVar
  48              		.align	2
  49              		.type	CySysTickInitVar, %object
  50              		.size	CySysTickInitVar, 4
  51              	CySysTickInitVar:
  52 0014 00000000 		.space	4
  53              		.global	cyImoFreqMhz2Reg
ARM GAS  C:\Users\Jason\AppData\Local\Temp\cc7xyQyF.s 			page 2


  54              		.section	.rodata
  55              		.align	2
  56              		.type	cyImoFreqMhz2Reg, %object
  57              		.size	cyImoFreqMhz2Reg, 46
  58              	cyImoFreqMhz2Reg:
  59 0000 03       		.byte	3
  60 0001 04       		.byte	4
  61 0002 05       		.byte	5
  62 0003 06       		.byte	6
  63 0004 07       		.byte	7
  64 0005 08       		.byte	8
  65 0006 09       		.byte	9
  66 0007 0A       		.byte	10
  67 0008 0B       		.byte	11
  68 0009 0C       		.byte	12
  69 000a 0E       		.byte	14
  70 000b 0F       		.byte	15
  71 000c 10       		.byte	16
  72 000d 11       		.byte	17
  73 000e 12       		.byte	18
  74 000f 13       		.byte	19
  75 0010 14       		.byte	20
  76 0011 15       		.byte	21
  77 0012 16       		.byte	22
  78 0013 17       		.byte	23
  79 0014 18       		.byte	24
  80 0015 19       		.byte	25
  81 0016 1B       		.byte	27
  82 0017 1C       		.byte	28
  83 0018 1D       		.byte	29
  84 0019 1E       		.byte	30
  85 001a 1F       		.byte	31
  86 001b 20       		.byte	32
  87 001c 21       		.byte	33
  88 001d 22       		.byte	34
  89 001e 23       		.byte	35
  90 001f 25       		.byte	37
  91 0020 26       		.byte	38
  92 0021 27       		.byte	39
  93 0022 28       		.byte	40
  94 0023 29       		.byte	41
  95 0024 2A       		.byte	42
  96 0025 2B       		.byte	43
  97 0026 2E       		.byte	46
  98 0027 2F       		.byte	47
  99 0028 30       		.byte	48
 100 0029 31       		.byte	49
 101 002a 32       		.byte	50
 102 002b 33       		.byte	51
 103 002c 34       		.byte	52
 104 002d 35       		.byte	53
 105              		.global	cyImoFreqMhz2DpllOffset
 106 002e 0000     		.align	2
 107              		.type	cyImoFreqMhz2DpllOffset, %object
 108              		.size	cyImoFreqMhz2DpllOffset, 23
 109              	cyImoFreqMhz2DpllOffset:
 110 0030 EE       		.byte	-18
ARM GAS  C:\Users\Jason\AppData\Local\Temp\cc7xyQyF.s 			page 3


 111 0031 DB       		.byte	-37
 112 0032 C9       		.byte	-55
 113 0033 B9       		.byte	-71
 114 0034 AA       		.byte	-86
 115 0035 9B       		.byte	-101
 116 0036 8E       		.byte	-114
 117 0037 82       		.byte	-126
 118 0038 76       		.byte	118
 119 0039 6B       		.byte	107
 120 003a 60       		.byte	96
 121 003b 56       		.byte	86
 122 003c 4D       		.byte	77
 123 003d 44       		.byte	68
 124 003e 3B       		.byte	59
 125 003f 33       		.byte	51
 126 0040 2C       		.byte	44
 127 0041 24       		.byte	36
 128 0042 1D       		.byte	29
 129 0043 17       		.byte	23
 130 0044 10       		.byte	16
 131 0045 0A       		.byte	10
 132 0046 04       		.byte	4
 133              		.global	CySysClkImoTrim4
 134              		.bss
 135              		.align	2
 136              		.type	CySysClkImoTrim4, %object
 137              		.size	CySysClkImoTrim4, 4
 138              	CySysClkImoTrim4:
 139 0018 00000000 		.space	4
 140              		.global	CySysClkImoTrim5
 141              		.align	2
 142              		.type	CySysClkImoTrim5, %object
 143              		.size	CySysClkImoTrim5, 4
 144              	CySysClkImoTrim5:
 145 001c 00000000 		.space	4
 146              		.global	CySysClkPumpConfig
 147              		.data
 148              		.align	2
 149              		.type	CySysClkPumpConfig, %object
 150              		.size	CySysClkPumpConfig, 4
 151              	CySysClkPumpConfig:
 152 0010 01000000 		.word	1
 153              		.section	.text.CySysClkImoStart,"ax",%progbits
 154              		.align	2
 155              		.global	CySysClkImoStart
 156              		.code	16
 157              		.thumb_func
 158              		.type	CySysClkImoStart, %function
 159              	CySysClkImoStart:
 160              	.LFB1:
 161              		.file 1 "Generated_Source\\PSoC4\\CyLib.c"
   1:Generated_Source\PSoC4/CyLib.c **** /***************************************************************************//**
   2:Generated_Source\PSoC4/CyLib.c **** * \file CyLib.c
   3:Generated_Source\PSoC4/CyLib.c **** * \version 5.70
   4:Generated_Source\PSoC4/CyLib.c **** *
   5:Generated_Source\PSoC4/CyLib.c **** * \brief Provides a system API for the Clocking, Interrupts, SysTick, and
   6:Generated_Source\PSoC4/CyLib.c **** * Voltage Detect.
ARM GAS  C:\Users\Jason\AppData\Local\Temp\cc7xyQyF.s 			page 4


   7:Generated_Source\PSoC4/CyLib.c **** *
   8:Generated_Source\PSoC4/CyLib.c **** * \note Documentation of the API's in this file is located in the PSoC 4 System
   9:Generated_Source\PSoC4/CyLib.c **** * Reference Guide provided with PSoC Creator.
  10:Generated_Source\PSoC4/CyLib.c **** *
  11:Generated_Source\PSoC4/CyLib.c **** ********************************************************************************
  12:Generated_Source\PSoC4/CyLib.c **** * \copyright
  13:Generated_Source\PSoC4/CyLib.c **** * Copyright 2010-2018, Cypress Semiconductor Corporation.  All rights reserved.
  14:Generated_Source\PSoC4/CyLib.c **** * You may use this file only in accordance with the license, terms, conditions,
  15:Generated_Source\PSoC4/CyLib.c **** * disclaimers, and limitations in the end user license agreement accompanying
  16:Generated_Source\PSoC4/CyLib.c **** * the software package with which this file was provided.
  17:Generated_Source\PSoC4/CyLib.c **** *******************************************************************************/
  18:Generated_Source\PSoC4/CyLib.c **** 
  19:Generated_Source\PSoC4/CyLib.c **** #include "CyLib.h"
  20:Generated_Source\PSoC4/CyLib.c **** 
  21:Generated_Source\PSoC4/CyLib.c **** /* CySysClkWriteImoFreq() || CySysClkImoEnableWcoLock() */
  22:Generated_Source\PSoC4/CyLib.c **** #if ((CY_IP_SRSSV2 && CY_IP_FMLT) || CY_IP_IMO_TRIMMABLE_BY_WCO)
  23:Generated_Source\PSoC4/CyLib.c ****     #include "CyFlash.h"
  24:Generated_Source\PSoC4/CyLib.c **** #endif /* (CY_IP_SRSSV2 && CY_IP_FMLT) */
  25:Generated_Source\PSoC4/CyLib.c **** 
  26:Generated_Source\PSoC4/CyLib.c **** /* Do not use these definitions directly in your application */
  27:Generated_Source\PSoC4/CyLib.c **** uint32 cydelayFreqHz  = CYDEV_BCLK__SYSCLK__HZ;
  28:Generated_Source\PSoC4/CyLib.c **** uint32 cydelayFreqKhz = (CYDEV_BCLK__SYSCLK__HZ + CY_DELAY_1K_MINUS_1_THRESHOLD) / CY_DELAY_1K_THRE
  29:Generated_Source\PSoC4/CyLib.c **** uint8  cydelayFreqMhz = (uint8)((CYDEV_BCLK__SYSCLK__HZ + CY_DELAY_1M_MINUS_1_THRESHOLD) / CY_DELAY
  30:Generated_Source\PSoC4/CyLib.c **** uint32 cydelay32kMs   = CY_DELAY_MS_OVERFLOW * ((CYDEV_BCLK__SYSCLK__HZ + CY_DELAY_1K_MINUS_1_THRES
  31:Generated_Source\PSoC4/CyLib.c ****                         CY_DELAY_1K_THRESHOLD);
  32:Generated_Source\PSoC4/CyLib.c **** 
  33:Generated_Source\PSoC4/CyLib.c **** 
  34:Generated_Source\PSoC4/CyLib.c **** static cySysTickCallback CySysTickCallbacks[CY_SYS_SYST_NUM_OF_CALLBACKS];
  35:Generated_Source\PSoC4/CyLib.c **** static void CySysTickServiceCallbacks(void);
  36:Generated_Source\PSoC4/CyLib.c **** 
  37:Generated_Source\PSoC4/CyLib.c **** #if (CY_IP_PLL)
  38:Generated_Source\PSoC4/CyLib.c ****     static uint32 CySysClkPllGetBypassMode(uint32 pll);
  39:Generated_Source\PSoC4/CyLib.c ****     static cystatus CySysClkPllConfigChangeAllowed(uint32 pll);
  40:Generated_Source\PSoC4/CyLib.c **** #endif /* (CY_IP_PLL) */
  41:Generated_Source\PSoC4/CyLib.c **** 
  42:Generated_Source\PSoC4/CyLib.c **** 
  43:Generated_Source\PSoC4/CyLib.c **** /***************************************************************************//**
  44:Generated_Source\PSoC4/CyLib.c **** * Indicates whether or not the SysTick has been initialized. The variable is
  45:Generated_Source\PSoC4/CyLib.c **** * initialized to 0 and set to 1 the first time CySysTickStart() is called.
  46:Generated_Source\PSoC4/CyLib.c **** *
  47:Generated_Source\PSoC4/CyLib.c **** * This allows the component to restart without reinitialization after the first
  48:Generated_Source\PSoC4/CyLib.c **** * call to the CySysTickStart() routine.
  49:Generated_Source\PSoC4/CyLib.c **** *
  50:Generated_Source\PSoC4/CyLib.c **** * If reinitialization of the SysTick is required, call CySysTickInit() before
  51:Generated_Source\PSoC4/CyLib.c **** * calling CySysTickStart(). Alternatively, the SysTick can be reinitialized by
  52:Generated_Source\PSoC4/CyLib.c **** * calling the CySysTickInit() and CySysTickEnable() functions.
  53:Generated_Source\PSoC4/CyLib.c **** *******************************************************************************/
  54:Generated_Source\PSoC4/CyLib.c **** uint32 CySysTickInitVar = 0u;
  55:Generated_Source\PSoC4/CyLib.c **** 
  56:Generated_Source\PSoC4/CyLib.c **** 
  57:Generated_Source\PSoC4/CyLib.c **** #if(CY_IP_SRSSV2)
  58:Generated_Source\PSoC4/CyLib.c ****         /* Conversion between CySysClkWriteImoFreq() parameter and register's value */
  59:Generated_Source\PSoC4/CyLib.c ****         const uint8 cyImoFreqMhz2Reg[CY_SYS_CLK_IMO_FREQ_TABLE_SIZE] = {
  60:Generated_Source\PSoC4/CyLib.c ****             /*  3 MHz */ 0x03u,  /*  4 MHz */ 0x04u,  /*  5 MHz */ 0x05u,  /*  6 MHz */ 0x06u,
  61:Generated_Source\PSoC4/CyLib.c ****             /*  7 MHz */ 0x07u,  /*  8 MHz */ 0x08u,  /*  9 MHz */ 0x09u,  /* 10 MHz */ 0x0Au,
  62:Generated_Source\PSoC4/CyLib.c ****             /* 11 MHz */ 0x0Bu,  /* 12 MHz */ 0x0Cu,  /* 13 MHz */ 0x0Eu,  /* 14 MHz */ 0x0Fu,
  63:Generated_Source\PSoC4/CyLib.c ****             /* 15 MHz */ 0x10u,  /* 16 MHz */ 0x11u,  /* 17 MHz */ 0x12u,  /* 18 MHz */ 0x13u,
ARM GAS  C:\Users\Jason\AppData\Local\Temp\cc7xyQyF.s 			page 5


  64:Generated_Source\PSoC4/CyLib.c ****             /* 19 MHz */ 0x14u,  /* 20 MHz */ 0x15u,  /* 21 MHz */ 0x16u,  /* 22 MHz */ 0x17u,
  65:Generated_Source\PSoC4/CyLib.c ****             /* 23 MHz */ 0x18u,  /* 24 MHz */ 0x19u,  /* 25 MHz */ 0x1Bu,  /* 26 MHz */ 0x1Cu,
  66:Generated_Source\PSoC4/CyLib.c ****             /* 27 MHz */ 0x1Du,  /* 28 MHz */ 0x1Eu,  /* 29 MHz */ 0x1Fu,  /* 30 MHz */ 0x20u,
  67:Generated_Source\PSoC4/CyLib.c ****             /* 31 MHz */ 0x21u,  /* 32 MHz */ 0x22u,  /* 33 MHz */ 0x23u,  /* 34 MHz */ 0x25u,
  68:Generated_Source\PSoC4/CyLib.c ****             /* 35 MHz */ 0x26u,  /* 36 MHz */ 0x27u,  /* 37 MHz */ 0x28u,  /* 38 MHz */ 0x29u,
  69:Generated_Source\PSoC4/CyLib.c ****             /* 39 MHz */ 0x2Au,  /* 40 MHz */ 0x2Bu,  /* 41 MHz */ 0x2Eu,  /* 42 MHz */ 0x2Fu,
  70:Generated_Source\PSoC4/CyLib.c ****             /* 43 MHz */ 0x30u,  /* 44 MHz */ 0x31u,  /* 45 MHz */ 0x32u,  /* 46 MHz */ 0x33u,
  71:Generated_Source\PSoC4/CyLib.c ****             /* 47 MHz */ 0x34u,  /* 48 MHz */ 0x35u };
  72:Generated_Source\PSoC4/CyLib.c **** #endif /* (CY_IP_SRSSV2) */
  73:Generated_Source\PSoC4/CyLib.c **** 
  74:Generated_Source\PSoC4/CyLib.c **** #if (CY_IP_IMO_TRIMMABLE_BY_WCO)
  75:Generated_Source\PSoC4/CyLib.c ****         /* Conversion between IMO frequency and WCO DPLL max offset steps */
  76:Generated_Source\PSoC4/CyLib.c ****         const uint8 cyImoFreqMhz2DpllOffset[CY_SYS_CLK_IMO_FREQ_WCO_DPLL_TABLE_SIZE] = {
  77:Generated_Source\PSoC4/CyLib.c ****             /* 26 MHz */  238u, /* 27 MHz */  219u, /* 28 MHz */  201u, /* 29 MHz */  185u,
  78:Generated_Source\PSoC4/CyLib.c ****             /* 30 MHz */  170u, /* 31 MHz */  155u, /* 32 MHz */  142u, /* 33 MHz */  130u,
  79:Generated_Source\PSoC4/CyLib.c ****             /* 34 MHz */  118u, /* 35 MHz */  107u, /* 36 MHz */   96u, /* 37 MHz */  86u,
  80:Generated_Source\PSoC4/CyLib.c ****             /* 38 MHz */   77u, /* 39 MHz */   68u, /* 40 MHz */   59u, /* 41 MHz */  51u,
  81:Generated_Source\PSoC4/CyLib.c ****             /* 42 MHz */   44u, /* 43 MHz */   36u, /* 44 MHz */   29u, /* 45 MHz */  23u,
  82:Generated_Source\PSoC4/CyLib.c ****             /* 46 MHz */   16u, /* 47 MHz */   10u, /* 48 MHz */   4u };
  83:Generated_Source\PSoC4/CyLib.c **** #endif /* (CY_IP_IMO_TRIMMABLE_BY_WCO) */
  84:Generated_Source\PSoC4/CyLib.c **** 
  85:Generated_Source\PSoC4/CyLib.c **** /* Stored CY_SYS_CLK_IMO_TRIM4_REG when modified for USB lock */
  86:Generated_Source\PSoC4/CyLib.c **** #if (CY_IP_IMO_TRIMMABLE_BY_USB && CY_IP_SRSSV2)
  87:Generated_Source\PSoC4/CyLib.c ****     uint32 CySysClkImoTrim4 = 0u;
  88:Generated_Source\PSoC4/CyLib.c ****     uint32 CySysClkImoTrim5 = 0u;
  89:Generated_Source\PSoC4/CyLib.c **** #endif /* (CY_IP_IMO_TRIMMABLE_BY_USB && CY_IP_SRSSV2) */
  90:Generated_Source\PSoC4/CyLib.c **** 
  91:Generated_Source\PSoC4/CyLib.c **** /* Stored PUMP_SEL configuration during disable (IMO output by default) */
  92:Generated_Source\PSoC4/CyLib.c **** uint32 CySysClkPumpConfig = CY_SYS_CLK_PUMP_ENABLE;
  93:Generated_Source\PSoC4/CyLib.c **** 
  94:Generated_Source\PSoC4/CyLib.c **** /*******************************************************************************
  95:Generated_Source\PSoC4/CyLib.c **** * Function Name: CySysClkImoStart
  96:Generated_Source\PSoC4/CyLib.c **** ****************************************************************************//**
  97:Generated_Source\PSoC4/CyLib.c **** *
  98:Generated_Source\PSoC4/CyLib.c **** * Enables the IMO.
  99:Generated_Source\PSoC4/CyLib.c **** *
 100:Generated_Source\PSoC4/CyLib.c **** * For PSoC 4100M / PSoC 4200M / PSoC 4000S / PSoC 4100S / PSoC Analog 
 101:Generated_Source\PSoC4/CyLib.c **** * Coprocessor devices, this function will also enable WCO lock if selected in 
 102:Generated_Source\PSoC4/CyLib.c **** * the Design Wide Resources tab.
 103:Generated_Source\PSoC4/CyLib.c **** *
 104:Generated_Source\PSoC4/CyLib.c **** * For PSoC 4200L devices, this function will also enable USB lock if selected
 105:Generated_Source\PSoC4/CyLib.c **** * in the Design Wide Resources tab.
 106:Generated_Source\PSoC4/CyLib.c **** *
 107:Generated_Source\PSoC4/CyLib.c **** *******************************************************************************/
 108:Generated_Source\PSoC4/CyLib.c **** void CySysClkImoStart(void)
 109:Generated_Source\PSoC4/CyLib.c **** {
 162              		.loc 1 109 0
 163              		.cfi_startproc
 164              		@ args = 0, pretend = 0, frame = 0
 165              		@ frame_needed = 1, uses_anonymous_args = 0
 166 0000 80B5     		push	{r7, lr}
 167              		.cfi_def_cfa_offset 8
 168              		.cfi_offset 7, -8
 169              		.cfi_offset 14, -4
 170 0002 00AF     		add	r7, sp, #0
 171              		.cfi_def_cfa_register 7
 110:Generated_Source\PSoC4/CyLib.c ****     CY_SYS_CLK_IMO_CONFIG_REG |= CY_SYS_CLK_IMO_CONFIG_ENABLE;
ARM GAS  C:\Users\Jason\AppData\Local\Temp\cc7xyQyF.s 			page 6


 172              		.loc 1 110 0
 173 0004 044B     		ldr	r3, .L2
 174 0006 044A     		ldr	r2, .L2
 175 0008 1268     		ldr	r2, [r2]
 176 000a 8021     		movs	r1, #128
 177 000c 0906     		lsls	r1, r1, #24
 178 000e 0A43     		orrs	r2, r1
 179 0010 1A60     		str	r2, [r3]
 111:Generated_Source\PSoC4/CyLib.c **** 
 112:Generated_Source\PSoC4/CyLib.c ****     #if (CY_IP_IMO_TRIMMABLE_BY_WCO)
 113:Generated_Source\PSoC4/CyLib.c ****         #if (CYDEV_IMO_TRIMMED_BY_WCO == 1u)
 114:Generated_Source\PSoC4/CyLib.c ****             CySysClkImoEnableWcoLock();
 115:Generated_Source\PSoC4/CyLib.c ****         #endif  /* (CYDEV_IMO_TRIMMED_BY_WCO == 1u) */
 116:Generated_Source\PSoC4/CyLib.c ****     #endif  /* (CY_IP_IMO_TRIMMABLE_BY_WCO) */
 117:Generated_Source\PSoC4/CyLib.c **** 
 118:Generated_Source\PSoC4/CyLib.c **** 
 119:Generated_Source\PSoC4/CyLib.c ****     #if (CY_IP_IMO_TRIMMABLE_BY_USB)
 120:Generated_Source\PSoC4/CyLib.c ****         #if (CYDEV_IMO_TRIMMED_BY_USB == 1u)
 121:Generated_Source\PSoC4/CyLib.c ****             CySysClkImoEnableUsbLock();
 122:Generated_Source\PSoC4/CyLib.c ****         #endif  /* (CYDEV_IMO_TRIMMED_BY_USB == 1u) */
 123:Generated_Source\PSoC4/CyLib.c ****     #endif  /* (CY_IP_IMO_TRIMMABLE_BY_USB) */
 124:Generated_Source\PSoC4/CyLib.c **** 
 125:Generated_Source\PSoC4/CyLib.c **** }
 180              		.loc 1 125 0
 181 0012 C046     		nop
 182 0014 BD46     		mov	sp, r7
 183              		@ sp needed
 184 0016 80BD     		pop	{r7, pc}
 185              	.L3:
 186              		.align	2
 187              	.L2:
 188 0018 08010B40 		.word	1074462984
 189              		.cfi_endproc
 190              	.LFE1:
 191              		.size	CySysClkImoStart, .-CySysClkImoStart
 192              		.section	.text.CySysClkImoStop,"ax",%progbits
 193              		.align	2
 194              		.global	CySysClkImoStop
 195              		.code	16
 196              		.thumb_func
 197              		.type	CySysClkImoStop, %function
 198              	CySysClkImoStop:
 199              	.LFB2:
 126:Generated_Source\PSoC4/CyLib.c **** 
 127:Generated_Source\PSoC4/CyLib.c **** 
 128:Generated_Source\PSoC4/CyLib.c **** /*******************************************************************************
 129:Generated_Source\PSoC4/CyLib.c **** * Function Name: CySysClkImoStop
 130:Generated_Source\PSoC4/CyLib.c **** ****************************************************************************//**
 131:Generated_Source\PSoC4/CyLib.c **** *
 132:Generated_Source\PSoC4/CyLib.c **** * Disables the IMO.
 133:Generated_Source\PSoC4/CyLib.c **** *
 134:Generated_Source\PSoC4/CyLib.c **** * For PSoC 4100M / PSoC 4200M / PSoC 4200L / PSoC 4000S / PSoC 4100S / 
 135:Generated_Source\PSoC4/CyLib.c **** * PSoC Analog Coprocessor devices, this function will also disable WCO lock.
 136:Generated_Source\PSoC4/CyLib.c **** *
 137:Generated_Source\PSoC4/CyLib.c **** * For PSoC PSoC 4200L devices, this function will also disable USB lock.
 138:Generated_Source\PSoC4/CyLib.c **** *
 139:Generated_Source\PSoC4/CyLib.c **** *******************************************************************************/
ARM GAS  C:\Users\Jason\AppData\Local\Temp\cc7xyQyF.s 			page 7


 140:Generated_Source\PSoC4/CyLib.c **** void CySysClkImoStop(void)
 141:Generated_Source\PSoC4/CyLib.c **** {
 200              		.loc 1 141 0
 201              		.cfi_startproc
 202              		@ args = 0, pretend = 0, frame = 0
 203              		@ frame_needed = 1, uses_anonymous_args = 0
 204 0000 80B5     		push	{r7, lr}
 205              		.cfi_def_cfa_offset 8
 206              		.cfi_offset 7, -8
 207              		.cfi_offset 14, -4
 208 0002 00AF     		add	r7, sp, #0
 209              		.cfi_def_cfa_register 7
 142:Generated_Source\PSoC4/CyLib.c ****     #if (CY_IP_IMO_TRIMMABLE_BY_WCO)
 143:Generated_Source\PSoC4/CyLib.c ****         CySysClkImoDisableWcoLock();
 210              		.loc 1 143 0
 211 0004 FFF7FEFF 		bl	CySysClkImoDisableWcoLock
 144:Generated_Source\PSoC4/CyLib.c ****     #endif  /* (CY_IP_IMO_TRIMMABLE_BY_WCO) */
 145:Generated_Source\PSoC4/CyLib.c **** 
 146:Generated_Source\PSoC4/CyLib.c ****     #if (CY_IP_IMO_TRIMMABLE_BY_USB)
 147:Generated_Source\PSoC4/CyLib.c ****         CySysClkImoDisableUsbLock();
 212              		.loc 1 147 0
 213 0008 FFF7FEFF 		bl	CySysClkImoDisableUsbLock
 148:Generated_Source\PSoC4/CyLib.c ****     #endif  /* (CY_IP_IMO_TRIMMABLE_BY_USB) */
 149:Generated_Source\PSoC4/CyLib.c **** 
 150:Generated_Source\PSoC4/CyLib.c ****     CY_SYS_CLK_IMO_CONFIG_REG &= ( uint32 ) ( ~( uint32 )CY_SYS_CLK_IMO_CONFIG_ENABLE);
 214              		.loc 1 150 0
 215 000c 044B     		ldr	r3, .L5
 216 000e 044A     		ldr	r2, .L5
 217 0010 1268     		ldr	r2, [r2]
 218 0012 5200     		lsls	r2, r2, #1
 219 0014 5208     		lsrs	r2, r2, #1
 220 0016 1A60     		str	r2, [r3]
 151:Generated_Source\PSoC4/CyLib.c **** }
 221              		.loc 1 151 0
 222 0018 C046     		nop
 223 001a BD46     		mov	sp, r7
 224              		@ sp needed
 225 001c 80BD     		pop	{r7, pc}
 226              	.L6:
 227 001e C046     		.align	2
 228              	.L5:
 229 0020 08010B40 		.word	1074462984
 230              		.cfi_endproc
 231              	.LFE2:
 232              		.size	CySysClkImoStop, .-CySysClkImoStop
 233              		.section	.text.CySysClkImoEnableWcoLock,"ax",%progbits
 234              		.align	2
 235              		.global	CySysClkImoEnableWcoLock
 236              		.code	16
 237              		.thumb_func
 238              		.type	CySysClkImoEnableWcoLock, %function
 239              	CySysClkImoEnableWcoLock:
 240              	.LFB3:
 152:Generated_Source\PSoC4/CyLib.c **** 
 153:Generated_Source\PSoC4/CyLib.c **** #if (CY_IP_IMO_TRIMMABLE_BY_WCO)
 154:Generated_Source\PSoC4/CyLib.c **** 
 155:Generated_Source\PSoC4/CyLib.c ****     /*******************************************************************************
ARM GAS  C:\Users\Jason\AppData\Local\Temp\cc7xyQyF.s 			page 8


 156:Generated_Source\PSoC4/CyLib.c ****     * Function Name: CySysClkImoEnableWcoLock
 157:Generated_Source\PSoC4/CyLib.c ****     ****************************************************************************//**
 158:Generated_Source\PSoC4/CyLib.c ****     *
 159:Generated_Source\PSoC4/CyLib.c ****     * Enables the IMO to WCO lock feature. This function works only if the WCO is
 160:Generated_Source\PSoC4/CyLib.c ****     * already enabled. If the WCO is not enabled then this function returns
 161:Generated_Source\PSoC4/CyLib.c ****     * without enabling the lock feature.
 162:Generated_Source\PSoC4/CyLib.c ****     *
 163:Generated_Source\PSoC4/CyLib.c ****     * It takes up to 20 ms for the IMO to stabilize. The delay is implemented with
 164:Generated_Source\PSoC4/CyLib.c ****     * CyDelay() function. The delay interval is measured based on the system
 165:Generated_Source\PSoC4/CyLib.c ****     * frequency defined by PSoC Creator at build time. If System clock frequency
 166:Generated_Source\PSoC4/CyLib.c ****     * is changed in runtime, the CyDelayFreq() with the appropriate parameter
 167:Generated_Source\PSoC4/CyLib.c ****     * should be called.
 168:Generated_Source\PSoC4/CyLib.c ****     *
 169:Generated_Source\PSoC4/CyLib.c ****     * For PSoC 4200L devices, note that the IMO can lock to either WCO or USB
 170:Generated_Source\PSoC4/CyLib.c ****     * but not both.
 171:Generated_Source\PSoC4/CyLib.c ****     *
 172:Generated_Source\PSoC4/CyLib.c ****     * This function is applicable for PSoC 4100M / PSoC 4200M / PSoC 4000S /
 173:Generated_Source\PSoC4/CyLib.c ****     * PSoC 4100S / PSoC Analog Coprocessor / PSoC 4200L.
 174:Generated_Source\PSoC4/CyLib.c ****     *
 175:Generated_Source\PSoC4/CyLib.c ****     *******************************************************************************/
 176:Generated_Source\PSoC4/CyLib.c ****     void CySysClkImoEnableWcoLock(void)
 177:Generated_Source\PSoC4/CyLib.c ****     {
 241              		.loc 1 177 0
 242              		.cfi_startproc
 243              		@ args = 0, pretend = 0, frame = 24
 244              		@ frame_needed = 1, uses_anonymous_args = 0
 245 0000 90B5     		push	{r4, r7, lr}
 246              		.cfi_def_cfa_offset 12
 247              		.cfi_offset 4, -12
 248              		.cfi_offset 7, -8
 249              		.cfi_offset 14, -4
 250 0002 87B0     		sub	sp, sp, #28
 251              		.cfi_def_cfa_offset 40
 252 0004 00AF     		add	r7, sp, #0
 253              		.cfi_def_cfa_register 7
 178:Generated_Source\PSoC4/CyLib.c ****         #if(CY_IP_SRSSV2)
 179:Generated_Source\PSoC4/CyLib.c ****             uint32 i;
 180:Generated_Source\PSoC4/CyLib.c ****         #endif  /* (CY_IP_SRSSV2) */
 181:Generated_Source\PSoC4/CyLib.c **** 
 182:Generated_Source\PSoC4/CyLib.c ****         uint32 freq;
 183:Generated_Source\PSoC4/CyLib.c ****         uint8  interruptState;
 184:Generated_Source\PSoC4/CyLib.c ****         uint32 regTmp;
 185:Generated_Source\PSoC4/CyLib.c ****         uint32 lfLimit = 0u;
 254              		.loc 1 185 0
 255 0006 0023     		movs	r3, #0
 256 0008 BB60     		str	r3, [r7, #8]
 186:Generated_Source\PSoC4/CyLib.c ****         volatile uint32 flashCtlReg;
 187:Generated_Source\PSoC4/CyLib.c **** 
 188:Generated_Source\PSoC4/CyLib.c ****         if (0u != CySysClkWcoEnabled())
 257              		.loc 1 188 0
 258 000a FFF7FEFF 		bl	CySysClkWcoEnabled
 259 000e 031E     		subs	r3, r0, #0
 260 0010 00D1     		bne	.LCB82
 261 0012 84E0     		b	.L17	@long jump
 262              	.LCB82:
 189:Generated_Source\PSoC4/CyLib.c ****         {
 190:Generated_Source\PSoC4/CyLib.c ****             interruptState = CyEnterCriticalSection();
ARM GAS  C:\Users\Jason\AppData\Local\Temp\cc7xyQyF.s 			page 9


 263              		.loc 1 190 0
 264 0014 FC1D     		adds	r4, r7, #7
 265 0016 FFF7FEFF 		bl	CyEnterCriticalSection
 266 001a 0300     		movs	r3, r0
 267 001c 2370     		strb	r3, [r4]
 191:Generated_Source\PSoC4/CyLib.c **** 
 192:Generated_Source\PSoC4/CyLib.c ****             /* Set oscillator interface control port to WCO */
 193:Generated_Source\PSoC4/CyLib.c ****             #if (CY_IP_IMO_TRIMMABLE_BY_WCO && CY_IP_IMO_TRIMMABLE_BY_USB)
 194:Generated_Source\PSoC4/CyLib.c ****                 CY_SYS_CLK_OSCINTF_CTL_REG =
 268              		.loc 1 194 0
 269 001e 424B     		ldr	r3, .L18
 195:Generated_Source\PSoC4/CyLib.c ****                     (CY_SYS_CLK_OSCINTF_CTL_REG & (uint32) ~CY_SYS_CLK_OSCINTF_CTL_PORT_SEL_MASK) |
 270              		.loc 1 195 0
 271 0020 414A     		ldr	r2, .L18
 272 0022 1268     		ldr	r2, [r2]
 273 0024 0121     		movs	r1, #1
 274 0026 0A43     		orrs	r2, r1
 194:Generated_Source\PSoC4/CyLib.c ****                     (CY_SYS_CLK_OSCINTF_CTL_REG & (uint32) ~CY_SYS_CLK_OSCINTF_CTL_PORT_SEL_MASK) |
 275              		.loc 1 194 0
 276 0028 1A60     		str	r2, [r3]
 196:Generated_Source\PSoC4/CyLib.c ****                     CY_SYS_CLK_OSCINTF_CTL_PORT_SEL_WCO;
 197:Generated_Source\PSoC4/CyLib.c ****             #endif /* (CY_IP_IMO_TRIMMABLE_BY_WCO && CY_IP_IMO_TRIMMABLE_BY_USB) */
 198:Generated_Source\PSoC4/CyLib.c **** 
 199:Generated_Source\PSoC4/CyLib.c ****             /* Get current IMO frequency based on the register value */
 200:Generated_Source\PSoC4/CyLib.c ****             #if(CY_IP_SRSSV2)
 201:Generated_Source\PSoC4/CyLib.c ****                 freq = CY_SYS_CLK_IMO_MIN_FREQ_MHZ;
 277              		.loc 1 201 0
 278 002a 0323     		movs	r3, #3
 279 002c 3B61     		str	r3, [r7, #16]
 202:Generated_Source\PSoC4/CyLib.c ****                 for(i = 0u; i < CY_SYS_CLK_IMO_FREQ_TABLE_SIZE; i++)
 280              		.loc 1 202 0
 281 002e 0023     		movs	r3, #0
 282 0030 7B61     		str	r3, [r7, #20]
 283 0032 11E0     		b	.L9
 284              	.L12:
 203:Generated_Source\PSoC4/CyLib.c ****                 {
 204:Generated_Source\PSoC4/CyLib.c ****                     if ((uint8) (CY_SYS_CLK_IMO_TRIM2_REG & CY_SYS_CLK_IMO_FREQ_BITS_MASK) == cyImo
 285              		.loc 1 204 0
 286 0034 3D4B     		ldr	r3, .L18+4
 287 0036 1B68     		ldr	r3, [r3]
 288 0038 1A00     		movs	r2, r3
 289 003a 3F23     		movs	r3, #63
 290 003c 1340     		ands	r3, r2
 291 003e 3C49     		ldr	r1, .L18+8
 292 0040 7A69     		ldr	r2, [r7, #20]
 293 0042 8A18     		adds	r2, r1, r2
 294 0044 1278     		ldrb	r2, [r2]
 295 0046 9342     		cmp	r3, r2
 296 0048 03D1     		bne	.L10
 205:Generated_Source\PSoC4/CyLib.c ****                     {
 206:Generated_Source\PSoC4/CyLib.c ****                         freq = i + CY_SYS_CLK_IMO_FREQ_TABLE_OFFSET;
 297              		.loc 1 206 0
 298 004a 7B69     		ldr	r3, [r7, #20]
 299 004c 0333     		adds	r3, r3, #3
 300 004e 3B61     		str	r3, [r7, #16]
 207:Generated_Source\PSoC4/CyLib.c ****                         break;
 301              		.loc 1 207 0
ARM GAS  C:\Users\Jason\AppData\Local\Temp\cc7xyQyF.s 			page 10


 302 0050 05E0     		b	.L11
 303              	.L10:
 202:Generated_Source\PSoC4/CyLib.c ****                 {
 304              		.loc 1 202 0 discriminator 2
 305 0052 7B69     		ldr	r3, [r7, #20]
 306 0054 0133     		adds	r3, r3, #1
 307 0056 7B61     		str	r3, [r7, #20]
 308              	.L9:
 202:Generated_Source\PSoC4/CyLib.c ****                 {
 309              		.loc 1 202 0 is_stmt 0 discriminator 1
 310 0058 7B69     		ldr	r3, [r7, #20]
 311 005a 2D2B     		cmp	r3, #45
 312 005c EAD9     		bls	.L12
 313              	.L11:
 208:Generated_Source\PSoC4/CyLib.c ****                     }
 209:Generated_Source\PSoC4/CyLib.c ****                 }
 210:Generated_Source\PSoC4/CyLib.c ****             #else
 211:Generated_Source\PSoC4/CyLib.c ****                 /* Calculate frequency by shifting register field value and adding constant. */
 212:Generated_Source\PSoC4/CyLib.c ****                 #if(CY_IP_SRSSLT)
 213:Generated_Source\PSoC4/CyLib.c ****                     freq = (((uint32) ((CY_SYS_CLK_IMO_SELECT_REG & ((uint32) CY_SYS_CLK_IMO_SELECT
 214:Generated_Source\PSoC4/CyLib.c ****                                         CY_SYS_CLK_IMO_SELECT_FREQ_SHIFT) + CY_SYS_CLK_IMO_MIN_FREQ
 215:Generated_Source\PSoC4/CyLib.c ****                                       ((CY_SYS_CLK_SELECT_REG >> CY_SYS_CLK_SELECT_HFCLK_DIV_SHIFT)
 216:Generated_Source\PSoC4/CyLib.c ****                                        (uint32) CY_SYS_CLK_SELECT_HFCLK_DIV_MASK));
 217:Generated_Source\PSoC4/CyLib.c ****                 #else
 218:Generated_Source\PSoC4/CyLib.c ****                     freq = ((uint32) ((CY_SYS_CLK_IMO_SELECT_REG & ((uint32) CY_SYS_CLK_IMO_SELECT_
 219:Generated_Source\PSoC4/CyLib.c ****                                        CY_SYS_CLK_IMO_SELECT_FREQ_SHIFT) + CY_SYS_CLK_IMO_MIN_FREQ_
 220:Generated_Source\PSoC4/CyLib.c ****                 #endif  /* (CY_IP_SRSSLT) */
 221:Generated_Source\PSoC4/CyLib.c **** 
 222:Generated_Source\PSoC4/CyLib.c ****             #endif  /* (CY_IP_SRSSV2) */
 223:Generated_Source\PSoC4/CyLib.c **** 
 224:Generated_Source\PSoC4/CyLib.c ****             /* For the WCO locking mode, the IMO gain needs to be CY_SYS_CLK_IMO_TRIM4_GAIN */
 225:Generated_Source\PSoC4/CyLib.c ****             #if(CY_IP_SRSSV2)
 226:Generated_Source\PSoC4/CyLib.c ****                 if ((CY_SYS_CLK_IMO_TRIM4_REG & CY_SYS_CLK_IMO_TRIM4_GAIN_MASK) == 0u)
 314              		.loc 1 226 0 is_stmt 1
 315 005e 354B     		ldr	r3, .L18+12
 316 0060 1B68     		ldr	r3, [r3]
 317 0062 1F22     		movs	r2, #31
 318 0064 1340     		ands	r3, r2
 319 0066 07D1     		bne	.L13
 227:Generated_Source\PSoC4/CyLib.c ****                 {
 228:Generated_Source\PSoC4/CyLib.c **** 			         CY_SYS_CLK_IMO_TRIM4_REG = (CY_SYS_CLK_IMO_TRIM4_REG & (uint32) ~CY_SYS_CLK_IMO_TRIM4_G
 320              		.loc 1 228 0
 321 0068 324B     		ldr	r3, .L18+12
 322 006a 324A     		ldr	r2, .L18+12
 323 006c 1268     		ldr	r2, [r2]
 324 006e 1F21     		movs	r1, #31
 325 0070 8A43     		bics	r2, r1
 326 0072 0C21     		movs	r1, #12
 327 0074 0A43     		orrs	r2, r1
 328 0076 1A60     		str	r2, [r3]
 329              	.L13:
 229:Generated_Source\PSoC4/CyLib.c **** 			                  				     CY_SYS_CLK_IMO_TRIM4_WCO_GAIN;
 230:Generated_Source\PSoC4/CyLib.c ****                 }
 231:Generated_Source\PSoC4/CyLib.c ****             #endif /* (CY_IP_SRSSV2) */
 232:Generated_Source\PSoC4/CyLib.c **** 
 233:Generated_Source\PSoC4/CyLib.c ****             regTmp  = CY_SYS_CLK_WCO_DPLL_REG & ~(CY_SYS_CLK_WCO_DPLL_MULT_MASK |
 330              		.loc 1 233 0
ARM GAS  C:\Users\Jason\AppData\Local\Temp\cc7xyQyF.s 			page 11


 331 0078 2F4B     		ldr	r3, .L18+16
 332 007a 1B68     		ldr	r3, [r3]
 333 007c 2F4A     		ldr	r2, .L18+20
 334 007e 1340     		ands	r3, r2
 335 0080 FB60     		str	r3, [r7, #12]
 234:Generated_Source\PSoC4/CyLib.c ****                                                   CY_SYS_CLK_WCO_CONFIG_DPLL_LF_IGAIN_MASK |
 235:Generated_Source\PSoC4/CyLib.c ****                                                   CY_SYS_CLK_WCO_CONFIG_DPLL_LF_PGAIN_MASK |
 236:Generated_Source\PSoC4/CyLib.c ****                                                   CY_SYS_CLK_WCO_CONFIG_DPLL_LF_LIMIT_MASK);
 237:Generated_Source\PSoC4/CyLib.c **** 
 238:Generated_Source\PSoC4/CyLib.c ****             /* Set multiplier to determine IMO frequency in multiples of the WCO frequency */
 239:Generated_Source\PSoC4/CyLib.c ****             regTmp |= (CY_SYS_CLK_WCO_DPLL_MULT_VALUE(freq) & CY_SYS_CLK_WCO_DPLL_MULT_MASK);
 336              		.loc 1 239 0
 337 0082 3B69     		ldr	r3, [r7, #16]
 338 0084 2E4A     		ldr	r2, .L18+24
 339 0086 5343     		muls	r3, r2
 340 0088 8022     		movs	r2, #128
 341 008a D201     		lsls	r2, r2, #7
 342 008c 9446     		mov	ip, r2
 343 008e 6344     		add	r3, r3, ip
 344 0090 DB0B     		lsrs	r3, r3, #15
 345 0092 013B     		subs	r3, r3, #1
 346 0094 5B05     		lsls	r3, r3, #21
 347 0096 5B0D     		lsrs	r3, r3, #21
 348 0098 FA68     		ldr	r2, [r7, #12]
 349 009a 1343     		orrs	r3, r2
 350 009c FB60     		str	r3, [r7, #12]
 240:Generated_Source\PSoC4/CyLib.c **** 
 241:Generated_Source\PSoC4/CyLib.c ****             /* Set DPLL Loop Filter Integral and Proportional Gains Setting */
 242:Generated_Source\PSoC4/CyLib.c ****             regTmp |= (CY_SYS_CLK_WCO_CONFIG_DPLL_LF_IGAIN | CY_SYS_CLK_WCO_CONFIG_DPLL_LF_PGAIN);
 351              		.loc 1 242 0
 352 009e FB68     		ldr	r3, [r7, #12]
 353 00a0 A022     		movs	r2, #160
 354 00a2 5203     		lsls	r2, r2, #13
 355 00a4 1343     		orrs	r3, r2
 356 00a6 FB60     		str	r3, [r7, #12]
 243:Generated_Source\PSoC4/CyLib.c **** 
 244:Generated_Source\PSoC4/CyLib.c ****             /* Set maximum allowed IMO offset */
 245:Generated_Source\PSoC4/CyLib.c ****             if (freq < CY_SYS_CLK_IMO_FREQ_WCO_DPLL_SAFE_POINT)
 357              		.loc 1 245 0
 358 00a8 3B69     		ldr	r3, [r7, #16]
 359 00aa 192B     		cmp	r3, #25
 360 00ac 05D8     		bhi	.L14
 246:Generated_Source\PSoC4/CyLib.c ****             {
 247:Generated_Source\PSoC4/CyLib.c ****                 regTmp |= (CY_SYS_CLK_WCO_CONFIG_DPLL_LF_LIMIT_MAX << CY_SYS_CLK_WCO_CONFIG_DPLL_LF
 361              		.loc 1 247 0
 362 00ae FB68     		ldr	r3, [r7, #12]
 363 00b0 FF22     		movs	r2, #255
 364 00b2 9205     		lsls	r2, r2, #22
 365 00b4 1343     		orrs	r3, r2
 366 00b6 FB60     		str	r3, [r7, #12]
 367 00b8 16E0     		b	.L15
 368              	.L14:
 248:Generated_Source\PSoC4/CyLib.c ****             }
 249:Generated_Source\PSoC4/CyLib.c ****             else
 250:Generated_Source\PSoC4/CyLib.c ****             {
 251:Generated_Source\PSoC4/CyLib.c ****                 lfLimit = (uint32) CY_SFLASH_IMO_TRIM_REG(freq - CY_SYS_CLK_IMO_MIN_FREQ_MHZ) +
 369              		.loc 1 251 0
ARM GAS  C:\Users\Jason\AppData\Local\Temp\cc7xyQyF.s 			page 12


 370 00ba 3B69     		ldr	r3, [r7, #16]
 371 00bc 214A     		ldr	r2, .L18+28
 372 00be 9446     		mov	ip, r2
 373 00c0 6344     		add	r3, r3, ip
 374 00c2 1B78     		ldrb	r3, [r3]
 375 00c4 DBB2     		uxtb	r3, r3
 376 00c6 1900     		movs	r1, r3
 252:Generated_Source\PSoC4/CyLib.c ****                     cyImoFreqMhz2DpllOffset[freq - CY_SYS_CLK_IMO_FREQ_WCO_DPLL_TABLE_OFFSET];
 377              		.loc 1 252 0
 378 00c8 3B69     		ldr	r3, [r7, #16]
 379 00ca 1A3B     		subs	r3, r3, #26
 380 00cc 1E4A     		ldr	r2, .L18+32
 381 00ce D35C     		ldrb	r3, [r2, r3]
 251:Generated_Source\PSoC4/CyLib.c ****                     cyImoFreqMhz2DpllOffset[freq - CY_SYS_CLK_IMO_FREQ_WCO_DPLL_TABLE_OFFSET];
 382              		.loc 1 251 0
 383 00d0 CB18     		adds	r3, r1, r3
 384 00d2 BB60     		str	r3, [r7, #8]
 253:Generated_Source\PSoC4/CyLib.c **** 
 254:Generated_Source\PSoC4/CyLib.c ****                 lfLimit = (lfLimit > CY_SYS_CLK_WCO_CONFIG_DPLL_LF_LIMIT_MAX) ?
 385              		.loc 1 254 0
 386 00d4 BB68     		ldr	r3, [r7, #8]
 387 00d6 FF2B     		cmp	r3, #255
 388 00d8 00D9     		bls	.L16
 389 00da FF23     		movs	r3, #255
 390              	.L16:
 391 00dc BB60     		str	r3, [r7, #8]
 255:Generated_Source\PSoC4/CyLib.c ****                     CY_SYS_CLK_WCO_CONFIG_DPLL_LF_LIMIT_MAX : lfLimit;
 256:Generated_Source\PSoC4/CyLib.c **** 
 257:Generated_Source\PSoC4/CyLib.c ****                 regTmp |= (lfLimit << CY_SYS_CLK_WCO_CONFIG_DPLL_LF_LIMIT_SHIFT);
 392              		.loc 1 257 0
 393 00de BB68     		ldr	r3, [r7, #8]
 394 00e0 9B05     		lsls	r3, r3, #22
 395 00e2 FA68     		ldr	r2, [r7, #12]
 396 00e4 1343     		orrs	r3, r2
 397 00e6 FB60     		str	r3, [r7, #12]
 398              	.L15:
 258:Generated_Source\PSoC4/CyLib.c ****             }
 259:Generated_Source\PSoC4/CyLib.c **** 
 260:Generated_Source\PSoC4/CyLib.c ****             CY_SYS_CLK_WCO_DPLL_REG = regTmp;
 399              		.loc 1 260 0
 400 00e8 134B     		ldr	r3, .L18+16
 401 00ea FA68     		ldr	r2, [r7, #12]
 402 00ec 1A60     		str	r2, [r3]
 261:Generated_Source\PSoC4/CyLib.c **** 
 262:Generated_Source\PSoC4/CyLib.c ****             flashCtlReg = CY_FLASH_CTL_REG;
 403              		.loc 1 262 0
 404 00ee 174B     		ldr	r3, .L18+36
 405 00f0 1B68     		ldr	r3, [r3]
 406 00f2 3B60     		str	r3, [r7]
 263:Generated_Source\PSoC4/CyLib.c ****             CySysFlashSetWaitCycles(CY_SYS_CLK_IMO_MAX_FREQ_MHZ);
 407              		.loc 1 263 0
 408 00f4 3020     		movs	r0, #48
 409 00f6 FFF7FEFF 		bl	CySysFlashSetWaitCycles
 264:Generated_Source\PSoC4/CyLib.c ****             CY_SYS_CLK_WCO_CONFIG_REG |= CY_SYS_CLK_WCO_CONFIG_DPLL_ENABLE;
 410              		.loc 1 264 0
 411 00fa 154B     		ldr	r3, .L18+40
 412 00fc 144A     		ldr	r2, .L18+40
ARM GAS  C:\Users\Jason\AppData\Local\Temp\cc7xyQyF.s 			page 13


 413 00fe 1268     		ldr	r2, [r2]
 414 0100 8021     		movs	r1, #128
 415 0102 C905     		lsls	r1, r1, #23
 416 0104 0A43     		orrs	r2, r1
 417 0106 1A60     		str	r2, [r3]
 265:Generated_Source\PSoC4/CyLib.c ****             CyDelay(CY_SYS_CLK_WCO_IMO_TIMEOUT_MS);
 418              		.loc 1 265 0
 419 0108 1420     		movs	r0, #20
 420 010a FFF7FEFF 		bl	CyDelay
 266:Generated_Source\PSoC4/CyLib.c ****             CY_FLASH_CTL_REG = flashCtlReg;
 421              		.loc 1 266 0
 422 010e 0F4B     		ldr	r3, .L18+36
 423 0110 3A68     		ldr	r2, [r7]
 424 0112 1A60     		str	r2, [r3]
 267:Generated_Source\PSoC4/CyLib.c **** 
 268:Generated_Source\PSoC4/CyLib.c ****             CyExitCriticalSection(interruptState);
 425              		.loc 1 268 0
 426 0114 FB1D     		adds	r3, r7, #7
 427 0116 1B78     		ldrb	r3, [r3]
 428 0118 1800     		movs	r0, r3
 429 011a FFF7FEFF 		bl	CyExitCriticalSection
 430              	.L17:
 269:Generated_Source\PSoC4/CyLib.c ****         }
 270:Generated_Source\PSoC4/CyLib.c ****     }
 431              		.loc 1 270 0
 432 011e C046     		nop
 433 0120 BD46     		mov	sp, r7
 434 0122 07B0     		add	sp, sp, #28
 435              		@ sp needed
 436 0124 90BD     		pop	{r4, r7, pc}
 437              	.L19:
 438 0126 C046     		.align	2
 439              	.L18:
 440 0128 50000C40 		.word	1074528336
 441 012c 2CFF0B40 		.word	1074528044
 442 0130 00000000 		.word	cyImoFreqMhz2Reg
 443 0134 34FF0B40 		.word	1074528052
 444 0138 08002240 		.word	1075970056
 445 013c 00F800C0 		.word	-1073678336
 446 0140 40420F00 		.word	1000000
 447 0144 4DF3FF0F 		.word	268432205
 448 0148 00000000 		.word	cyImoFreqMhz2DpllOffset
 449 014c 30001040 		.word	1074790448
 450 0150 00002240 		.word	1075970048
 451              		.cfi_endproc
 452              	.LFE3:
 453              		.size	CySysClkImoEnableWcoLock, .-CySysClkImoEnableWcoLock
 454              		.section	.text.CySysClkImoDisableWcoLock,"ax",%progbits
 455              		.align	2
 456              		.global	CySysClkImoDisableWcoLock
 457              		.code	16
 458              		.thumb_func
 459              		.type	CySysClkImoDisableWcoLock, %function
 460              	CySysClkImoDisableWcoLock:
 461              	.LFB4:
 271:Generated_Source\PSoC4/CyLib.c **** 
 272:Generated_Source\PSoC4/CyLib.c **** 
ARM GAS  C:\Users\Jason\AppData\Local\Temp\cc7xyQyF.s 			page 14


 273:Generated_Source\PSoC4/CyLib.c ****     /*******************************************************************************
 274:Generated_Source\PSoC4/CyLib.c ****     * Function Name: CySysClkImoDisableWcoLock
 275:Generated_Source\PSoC4/CyLib.c ****     ****************************************************************************//**
 276:Generated_Source\PSoC4/CyLib.c ****     *
 277:Generated_Source\PSoC4/CyLib.c ****     * Disables the IMO to WCO lock feature.
 278:Generated_Source\PSoC4/CyLib.c ****     *
 279:Generated_Source\PSoC4/CyLib.c ****     * For PSoC 4200L devices, note that the IMO can lock to either WCO or USB
 280:Generated_Source\PSoC4/CyLib.c ****     * but not both.
 281:Generated_Source\PSoC4/CyLib.c ****     *
 282:Generated_Source\PSoC4/CyLib.c ****     * This function is applicable for PSoC 4100M / PSoC 4200M / PSoC 4000S /
 283:Generated_Source\PSoC4/CyLib.c ****     * PSoC 4100S / PSoC Analog Coprocessor / PSoC 4200L.
 284:Generated_Source\PSoC4/CyLib.c ****     *
 285:Generated_Source\PSoC4/CyLib.c ****     *******************************************************************************/
 286:Generated_Source\PSoC4/CyLib.c ****     void CySysClkImoDisableWcoLock(void)
 287:Generated_Source\PSoC4/CyLib.c ****     {
 462              		.loc 1 287 0
 463              		.cfi_startproc
 464              		@ args = 0, pretend = 0, frame = 0
 465              		@ frame_needed = 1, uses_anonymous_args = 0
 466 0000 80B5     		push	{r7, lr}
 467              		.cfi_def_cfa_offset 8
 468              		.cfi_offset 7, -8
 469              		.cfi_offset 14, -4
 470 0002 00AF     		add	r7, sp, #0
 471              		.cfi_def_cfa_register 7
 288:Generated_Source\PSoC4/CyLib.c ****         CY_SYS_CLK_WCO_CONFIG_REG &= (uint32) ~CY_SYS_CLK_WCO_CONFIG_DPLL_ENABLE;
 472              		.loc 1 288 0
 473 0004 044B     		ldr	r3, .L21
 474 0006 044A     		ldr	r2, .L21
 475 0008 1268     		ldr	r2, [r2]
 476 000a 0449     		ldr	r1, .L21+4
 477 000c 0A40     		ands	r2, r1
 478 000e 1A60     		str	r2, [r3]
 289:Generated_Source\PSoC4/CyLib.c ****     }
 479              		.loc 1 289 0
 480 0010 C046     		nop
 481 0012 BD46     		mov	sp, r7
 482              		@ sp needed
 483 0014 80BD     		pop	{r7, pc}
 484              	.L22:
 485 0016 C046     		.align	2
 486              	.L21:
 487 0018 00002240 		.word	1075970048
 488 001c FFFFFFBF 		.word	-1073741825
 489              		.cfi_endproc
 490              	.LFE4:
 491              		.size	CySysClkImoDisableWcoLock, .-CySysClkImoDisableWcoLock
 492              		.section	.text.CySysClkImoGetWcoLock,"ax",%progbits
 493              		.align	2
 494              		.global	CySysClkImoGetWcoLock
 495              		.code	16
 496              		.thumb_func
 497              		.type	CySysClkImoGetWcoLock, %function
 498              	CySysClkImoGetWcoLock:
 499              	.LFB5:
 290:Generated_Source\PSoC4/CyLib.c **** 
 291:Generated_Source\PSoC4/CyLib.c **** 
ARM GAS  C:\Users\Jason\AppData\Local\Temp\cc7xyQyF.s 			page 15


 292:Generated_Source\PSoC4/CyLib.c ****     /*******************************************************************************
 293:Generated_Source\PSoC4/CyLib.c ****     * Function Name: CySysClkImoGetWcoLock
 294:Generated_Source\PSoC4/CyLib.c ****     ****************************************************************************//**
 295:Generated_Source\PSoC4/CyLib.c ****     *
 296:Generated_Source\PSoC4/CyLib.c ****     * Reports the IMO to WCO lock enable state.
 297:Generated_Source\PSoC4/CyLib.c ****     *
 298:Generated_Source\PSoC4/CyLib.c ****     * This function is applicable for PSoC 4100M / PSoC 4200M / PSoC 4000S /
 299:Generated_Source\PSoC4/CyLib.c ****     * PSoC 4100S / PSoC Analog Coprocessor / PSoC 4200L.
 300:Generated_Source\PSoC4/CyLib.c ****     *
 301:Generated_Source\PSoC4/CyLib.c ****     * \return 1 if IMO to WCO lock is enabled.
 302:Generated_Source\PSoC4/CyLib.c ****     * \return 0 if IMO to WCO lock is disabled.
 303:Generated_Source\PSoC4/CyLib.c ****     *
 304:Generated_Source\PSoC4/CyLib.c ****     *******************************************************************************/
 305:Generated_Source\PSoC4/CyLib.c ****     uint32 CySysClkImoGetWcoLock(void)
 306:Generated_Source\PSoC4/CyLib.c ****     {
 500              		.loc 1 306 0
 501              		.cfi_startproc
 502              		@ args = 0, pretend = 0, frame = 0
 503              		@ frame_needed = 1, uses_anonymous_args = 0
 504 0000 80B5     		push	{r7, lr}
 505              		.cfi_def_cfa_offset 8
 506              		.cfi_offset 7, -8
 507              		.cfi_offset 14, -4
 508 0002 00AF     		add	r7, sp, #0
 509              		.cfi_def_cfa_register 7
 307:Generated_Source\PSoC4/CyLib.c ****         return ((0u != (CY_SYS_CLK_WCO_CONFIG_REG & CY_SYS_CLK_WCO_CONFIG_DPLL_ENABLE)) ?
 510              		.loc 1 307 0
 511 0004 054B     		ldr	r3, .L27
 512 0006 1A68     		ldr	r2, [r3]
 513 0008 8023     		movs	r3, #128
 514 000a DB05     		lsls	r3, r3, #23
 515 000c 1340     		ands	r3, r2
 308:Generated_Source\PSoC4/CyLib.c ****                 (uint32) 1u :
 516              		.loc 1 308 0
 517 000e 01D0     		beq	.L24
 518              		.loc 1 308 0 is_stmt 0 discriminator 1
 519 0010 0123     		movs	r3, #1
 307:Generated_Source\PSoC4/CyLib.c ****         return ((0u != (CY_SYS_CLK_WCO_CONFIG_REG & CY_SYS_CLK_WCO_CONFIG_DPLL_ENABLE)) ?
 520              		.loc 1 307 0 is_stmt 1 discriminator 1
 521 0012 00E0     		b	.L26
 522              	.L24:
 523              		.loc 1 308 0 discriminator 2
 524 0014 0023     		movs	r3, #0
 525              	.L26:
 309:Generated_Source\PSoC4/CyLib.c ****                 (uint32) 0u);
 310:Generated_Source\PSoC4/CyLib.c ****     }
 526              		.loc 1 310 0 discriminator 1
 527 0016 1800     		movs	r0, r3
 528 0018 BD46     		mov	sp, r7
 529              		@ sp needed
 530 001a 80BD     		pop	{r7, pc}
 531              	.L28:
 532              		.align	2
 533              	.L27:
 534 001c 00002240 		.word	1075970048
 535              		.cfi_endproc
 536              	.LFE5:
ARM GAS  C:\Users\Jason\AppData\Local\Temp\cc7xyQyF.s 			page 16


 537              		.size	CySysClkImoGetWcoLock, .-CySysClkImoGetWcoLock
 538              		.section	.text.CySysClkImoEnableUsbLock,"ax",%progbits
 539              		.align	2
 540              		.global	CySysClkImoEnableUsbLock
 541              		.code	16
 542              		.thumb_func
 543              		.type	CySysClkImoEnableUsbLock, %function
 544              	CySysClkImoEnableUsbLock:
 545              	.LFB6:
 311:Generated_Source\PSoC4/CyLib.c **** 
 312:Generated_Source\PSoC4/CyLib.c **** #endif /* (CY_IP_IMO_TRIMMABLE_BY_WCO) */
 313:Generated_Source\PSoC4/CyLib.c **** 
 314:Generated_Source\PSoC4/CyLib.c **** 
 315:Generated_Source\PSoC4/CyLib.c **** #if (CY_IP_IMO_TRIMMABLE_BY_USB)
 316:Generated_Source\PSoC4/CyLib.c **** 
 317:Generated_Source\PSoC4/CyLib.c ****     /*******************************************************************************
 318:Generated_Source\PSoC4/CyLib.c ****     * Function Name: CySysClkImoEnableUsbLock
 319:Generated_Source\PSoC4/CyLib.c ****     ****************************************************************************//**
 320:Generated_Source\PSoC4/CyLib.c ****     *
 321:Generated_Source\PSoC4/CyLib.c ****     * Enables the IMO to USB lock feature.
 322:Generated_Source\PSoC4/CyLib.c ****     *
 323:Generated_Source\PSoC4/CyLib.c ****     * This function must be called before CySysClkWriteImoFreq().
 324:Generated_Source\PSoC4/CyLib.c ****     *
 325:Generated_Source\PSoC4/CyLib.c ****     * This function is called from CySysClkImoStart() function if USB lock
 326:Generated_Source\PSoC4/CyLib.c ****     * selected in the Design Wide Resources tab.
 327:Generated_Source\PSoC4/CyLib.c ****     *
 328:Generated_Source\PSoC4/CyLib.c ****     * This is applicable for PSoC 4200L family of devices only. For PSoC 4200L
 329:Generated_Source\PSoC4/CyLib.c ****     * devices, the IMO can lock to either WCO or USB, but not both.
 330:Generated_Source\PSoC4/CyLib.c ****     *
 331:Generated_Source\PSoC4/CyLib.c ****     *******************************************************************************/
 332:Generated_Source\PSoC4/CyLib.c ****     void CySysClkImoEnableUsbLock(void)
 333:Generated_Source\PSoC4/CyLib.c ****     {
 546              		.loc 1 333 0
 547              		.cfi_startproc
 548              		@ args = 0, pretend = 0, frame = 16
 549              		@ frame_needed = 1, uses_anonymous_args = 0
 550 0000 80B5     		push	{r7, lr}
 551              		.cfi_def_cfa_offset 8
 552              		.cfi_offset 7, -8
 553              		.cfi_offset 14, -4
 554 0002 84B0     		sub	sp, sp, #16
 555              		.cfi_def_cfa_offset 24
 556 0004 00AF     		add	r7, sp, #0
 557              		.cfi_def_cfa_register 7
 334:Generated_Source\PSoC4/CyLib.c ****         #if(CY_IP_SRSSV2)
 335:Generated_Source\PSoC4/CyLib.c ****             uint32 i;
 336:Generated_Source\PSoC4/CyLib.c ****             
 337:Generated_Source\PSoC4/CyLib.c ****             /* Check for new trim algorithm */
 338:Generated_Source\PSoC4/CyLib.c ****             uint32 CySysClkUsbCuSortTrim = ((CY_SFLASH_S1_TESTPGM_OLD_REV < (CY_SFLASH_S1_TESTPGM_R
 558              		.loc 1 338 0
 559 0006 3C4B     		ldr	r3, .L44
 560 0008 1B78     		ldrb	r3, [r3]
 561 000a DBB2     		uxtb	r3, r3
 562 000c 1A00     		movs	r2, r3
 563 000e 3F23     		movs	r3, #63
 564 0010 1340     		ands	r3, r2
 565 0012 042B     		cmp	r3, #4
ARM GAS  C:\Users\Jason\AppData\Local\Temp\cc7xyQyF.s 			page 17


 566 0014 01D9     		bls	.L30
 567              		.loc 1 338 0 is_stmt 0 discriminator 1
 568 0016 0123     		movs	r3, #1
 569 0018 00E0     		b	.L31
 570              	.L30:
 571              		.loc 1 338 0 discriminator 2
 572 001a 0023     		movs	r3, #0
 573              	.L31:
 574              		.loc 1 338 0 discriminator 4
 575 001c 7B60     		str	r3, [r7, #4]
 339:Generated_Source\PSoC4/CyLib.c ****                                                                             CY_SFLASH_S1_TESTPGM_RE
 340:Generated_Source\PSoC4/CyLib.c **** 
 341:Generated_Source\PSoC4/CyLib.c ****             /* Get current IMO frequency based on the register value */
 342:Generated_Source\PSoC4/CyLib.c ****             uint32 freq = CY_SYS_CLK_IMO_MIN_FREQ_MHZ;
 576              		.loc 1 342 0 is_stmt 1 discriminator 4
 577 001e 0323     		movs	r3, #3
 578 0020 BB60     		str	r3, [r7, #8]
 343:Generated_Source\PSoC4/CyLib.c **** 
 344:Generated_Source\PSoC4/CyLib.c ****             for(i = 0u; i < CY_SYS_CLK_IMO_FREQ_TABLE_SIZE; i++)
 579              		.loc 1 344 0 discriminator 4
 580 0022 0023     		movs	r3, #0
 581 0024 FB60     		str	r3, [r7, #12]
 582 0026 11E0     		b	.L32
 583              	.L35:
 345:Generated_Source\PSoC4/CyLib.c ****             {
 346:Generated_Source\PSoC4/CyLib.c ****                 if ((uint8) (CY_SYS_CLK_IMO_TRIM2_REG & CY_SYS_CLK_IMO_FREQ_BITS_MASK) == cyImoFreq
 584              		.loc 1 346 0
 585 0028 344B     		ldr	r3, .L44+4
 586 002a 1B68     		ldr	r3, [r3]
 587 002c 1A00     		movs	r2, r3
 588 002e 3F23     		movs	r3, #63
 589 0030 1340     		ands	r3, r2
 590 0032 3349     		ldr	r1, .L44+8
 591 0034 FA68     		ldr	r2, [r7, #12]
 592 0036 8A18     		adds	r2, r1, r2
 593 0038 1278     		ldrb	r2, [r2]
 594 003a 9342     		cmp	r3, r2
 595 003c 03D1     		bne	.L33
 347:Generated_Source\PSoC4/CyLib.c ****                 {
 348:Generated_Source\PSoC4/CyLib.c ****                     freq = i + CY_SYS_CLK_IMO_FREQ_TABLE_OFFSET;
 596              		.loc 1 348 0
 597 003e FB68     		ldr	r3, [r7, #12]
 598 0040 0333     		adds	r3, r3, #3
 599 0042 BB60     		str	r3, [r7, #8]
 349:Generated_Source\PSoC4/CyLib.c ****                     break;
 600              		.loc 1 349 0
 601 0044 05E0     		b	.L34
 602              	.L33:
 344:Generated_Source\PSoC4/CyLib.c ****             {
 603              		.loc 1 344 0 discriminator 2
 604 0046 FB68     		ldr	r3, [r7, #12]
 605 0048 0133     		adds	r3, r3, #1
 606 004a FB60     		str	r3, [r7, #12]
 607              	.L32:
 344:Generated_Source\PSoC4/CyLib.c ****             {
 608              		.loc 1 344 0 is_stmt 0 discriminator 1
 609 004c FB68     		ldr	r3, [r7, #12]
ARM GAS  C:\Users\Jason\AppData\Local\Temp\cc7xyQyF.s 			page 18


 610 004e 2D2B     		cmp	r3, #45
 611 0050 EAD9     		bls	.L35
 612              	.L34:
 350:Generated_Source\PSoC4/CyLib.c ****                 }
 351:Generated_Source\PSoC4/CyLib.c ****             }
 352:Generated_Source\PSoC4/CyLib.c ****         #endif  /* (CY_IP_SRSSV2) */
 353:Generated_Source\PSoC4/CyLib.c ****         
 354:Generated_Source\PSoC4/CyLib.c ****         /* Set oscillator interface control port to USB */
 355:Generated_Source\PSoC4/CyLib.c ****         #if (CY_IP_IMO_TRIMMABLE_BY_WCO && CY_IP_IMO_TRIMMABLE_BY_USB)
 356:Generated_Source\PSoC4/CyLib.c ****             CY_SYS_CLK_OSCINTF_CTL_REG = (CY_SYS_CLK_OSCINTF_CTL_REG & (uint32) ~CY_SYS_CLK_OSCINTF
 613              		.loc 1 356 0 is_stmt 1
 614 0052 2C4B     		ldr	r3, .L44+12
 615 0054 2B4A     		ldr	r2, .L44+12
 616 0056 1268     		ldr	r2, [r2]
 617 0058 0121     		movs	r1, #1
 618 005a 8A43     		bics	r2, r1
 619 005c 1A60     		str	r2, [r3]
 357:Generated_Source\PSoC4/CyLib.c ****                                           CY_SYS_CLK_OSCINTF_CTL_PORT_SEL_USB;
 358:Generated_Source\PSoC4/CyLib.c ****         #endif /* (CY_IP_IMO_TRIMMABLE_BY_WCO && CY_IP_IMO_TRIMMABLE_BY_USB) */
 359:Generated_Source\PSoC4/CyLib.c **** 
 360:Generated_Source\PSoC4/CyLib.c ****         #if(CY_IP_SRSSV2)
 361:Generated_Source\PSoC4/CyLib.c ****            
 362:Generated_Source\PSoC4/CyLib.c ****             /* Save CY_SYS_CLK_IMO_TRIM4_REG and set IMO gain for USB lock */
 363:Generated_Source\PSoC4/CyLib.c ****             CySysClkImoTrim4 = CY_SYS_CLK_IMO_TRIM4_REG;
 620              		.loc 1 363 0
 621 005e 2A4B     		ldr	r3, .L44+16
 622 0060 1A68     		ldr	r2, [r3]
 623 0062 2A4B     		ldr	r3, .L44+20
 624 0064 1A60     		str	r2, [r3]
 364:Generated_Source\PSoC4/CyLib.c ****             
 365:Generated_Source\PSoC4/CyLib.c ****             if(0u != CySysClkUsbCuSortTrim)
 625              		.loc 1 365 0
 626 0066 7B68     		ldr	r3, [r7, #4]
 627 0068 002B     		cmp	r3, #0
 628 006a 13D0     		beq	.L36
 366:Generated_Source\PSoC4/CyLib.c ****             {
 367:Generated_Source\PSoC4/CyLib.c ****                 CySysClkImoTrim5 = CY_PWR_BG_TRIM5_REG;
 629              		.loc 1 367 0
 630 006c 284B     		ldr	r3, .L44+24
 631 006e 1A68     		ldr	r2, [r3]
 632 0070 284B     		ldr	r3, .L44+28
 633 0072 1A60     		str	r2, [r3]
 368:Generated_Source\PSoC4/CyLib.c ****                 
 369:Generated_Source\PSoC4/CyLib.c ****                 CY_SYS_CLK_IMO_TRIM4_REG = (CySysClkImoTrim4 & (uint32) ~CY_SYS_CLK_IMO_TRIM4_GAIN_
 634              		.loc 1 369 0
 635 0074 244A     		ldr	r2, .L44+16
 636 0076 254B     		ldr	r3, .L44+20
 637 0078 1B68     		ldr	r3, [r3]
 638 007a 1F21     		movs	r1, #31
 639 007c 8B43     		bics	r3, r1
 370:Generated_Source\PSoC4/CyLib.c ****                                             CY_SFLASH_USBMODE_IMO_GAIN_TRIM_REG;
 640              		.loc 1 370 0
 641 007e 2649     		ldr	r1, .L44+32
 642 0080 0978     		ldrb	r1, [r1]
 643 0082 C9B2     		uxtb	r1, r1
 369:Generated_Source\PSoC4/CyLib.c ****                                             CY_SFLASH_USBMODE_IMO_GAIN_TRIM_REG;
 644              		.loc 1 369 0
ARM GAS  C:\Users\Jason\AppData\Local\Temp\cc7xyQyF.s 			page 19


 645 0084 0B43     		orrs	r3, r1
 646 0086 1360     		str	r3, [r2]
 371:Generated_Source\PSoC4/CyLib.c ****                 CY_PWR_BG_TRIM5_REG = CY_SFLASH_USBMODE_IMO_TEMPCO_REG;
 647              		.loc 1 371 0
 648 0088 214B     		ldr	r3, .L44+24
 649 008a 244A     		ldr	r2, .L44+36
 650 008c 1278     		ldrb	r2, [r2]
 651 008e D2B2     		uxtb	r2, r2
 652 0090 1A60     		str	r2, [r3]
 653 0092 07E0     		b	.L37
 654              	.L36:
 372:Generated_Source\PSoC4/CyLib.c ****                 
 373:Generated_Source\PSoC4/CyLib.c ****             }
 374:Generated_Source\PSoC4/CyLib.c ****             else
 375:Generated_Source\PSoC4/CyLib.c ****             {
 376:Generated_Source\PSoC4/CyLib.c ****                 CY_SYS_CLK_IMO_TRIM4_REG = (CySysClkImoTrim4 & (uint32) ~CY_SYS_CLK_IMO_TRIM4_GAIN_
 655              		.loc 1 376 0
 656 0094 1C4A     		ldr	r2, .L44+16
 657 0096 1D4B     		ldr	r3, .L44+20
 658 0098 1B68     		ldr	r3, [r3]
 659 009a 1F21     		movs	r1, #31
 660 009c 8B43     		bics	r3, r1
 661 009e 0821     		movs	r1, #8
 662 00a0 0B43     		orrs	r3, r1
 663 00a2 1360     		str	r3, [r2]
 664              	.L37:
 377:Generated_Source\PSoC4/CyLib.c ****                                             CY_SYS_CLK_IMO_TRIM4_USB_GAIN;
 378:Generated_Source\PSoC4/CyLib.c **** 
 379:Generated_Source\PSoC4/CyLib.c ****             }
 380:Generated_Source\PSoC4/CyLib.c **** 
 381:Generated_Source\PSoC4/CyLib.c ****             if (48u == freq)
 665              		.loc 1 381 0
 666 00a4 BB68     		ldr	r3, [r7, #8]
 667 00a6 302B     		cmp	r3, #48
 668 00a8 0CD1     		bne	.L38
 382:Generated_Source\PSoC4/CyLib.c ****             {
 383:Generated_Source\PSoC4/CyLib.c ****                 CY_SYS_CLK_IMO_TRIM1_REG = (0u != CySysClkUsbCuSortTrim) ? 
 669              		.loc 1 383 0
 670 00aa 1D4B     		ldr	r3, .L44+40
 384:Generated_Source\PSoC4/CyLib.c ****                                            (uint32)CY_SFLASH_CU_IMO_TRIM_USBMODE_48_REG :
 671              		.loc 1 384 0
 672 00ac 7A68     		ldr	r2, [r7, #4]
 673 00ae 002A     		cmp	r2, #0
 674 00b0 03D0     		beq	.L39
 675              		.loc 1 384 0 is_stmt 0 discriminator 1
 676 00b2 1C4A     		ldr	r2, .L44+44
 677 00b4 1278     		ldrb	r2, [r2]
 678 00b6 D2B2     		uxtb	r2, r2
 679 00b8 02E0     		b	.L40
 680              	.L39:
 385:Generated_Source\PSoC4/CyLib.c ****                                            (uint32)CY_SFLASH_IMO_TRIM_USBMODE_48_REG;
 681              		.loc 1 385 0 is_stmt 1 discriminator 2
 682 00ba 1B4A     		ldr	r2, .L44+48
 683 00bc 1278     		ldrb	r2, [r2]
 684 00be D2B2     		uxtb	r2, r2
 685              	.L40:
 383:Generated_Source\PSoC4/CyLib.c ****                                            (uint32)CY_SFLASH_CU_IMO_TRIM_USBMODE_48_REG :
ARM GAS  C:\Users\Jason\AppData\Local\Temp\cc7xyQyF.s 			page 20


 686              		.loc 1 383 0
 687 00c0 1A60     		str	r2, [r3]
 688 00c2 0EE0     		b	.L41
 689              	.L38:
 386:Generated_Source\PSoC4/CyLib.c ****             }
 387:Generated_Source\PSoC4/CyLib.c ****             else if (24u == freq)
 690              		.loc 1 387 0
 691 00c4 BB68     		ldr	r3, [r7, #8]
 692 00c6 182B     		cmp	r3, #24
 693 00c8 0BD1     		bne	.L41
 388:Generated_Source\PSoC4/CyLib.c ****             {
 389:Generated_Source\PSoC4/CyLib.c ****                 CY_SYS_CLK_IMO_TRIM1_REG = (0u != CySysClkUsbCuSortTrim) ? 
 694              		.loc 1 389 0
 695 00ca 154B     		ldr	r3, .L44+40
 390:Generated_Source\PSoC4/CyLib.c ****                                            (uint32)CY_SFLASH_CU_IMO_TRIM_USBMODE_24_REG :
 696              		.loc 1 390 0
 697 00cc 7A68     		ldr	r2, [r7, #4]
 698 00ce 002A     		cmp	r2, #0
 699 00d0 03D0     		beq	.L42
 700              		.loc 1 390 0 is_stmt 0 discriminator 1
 701 00d2 164A     		ldr	r2, .L44+52
 702 00d4 1278     		ldrb	r2, [r2]
 703 00d6 D2B2     		uxtb	r2, r2
 704 00d8 02E0     		b	.L43
 705              	.L42:
 391:Generated_Source\PSoC4/CyLib.c ****                                            (uint32)CY_SFLASH_IMO_TRIM_USBMODE_24_REG;
 706              		.loc 1 391 0 is_stmt 1 discriminator 2
 707 00da 154A     		ldr	r2, .L44+56
 708 00dc 1278     		ldrb	r2, [r2]
 709 00de D2B2     		uxtb	r2, r2
 710              	.L43:
 389:Generated_Source\PSoC4/CyLib.c ****                                            (uint32)CY_SFLASH_CU_IMO_TRIM_USBMODE_24_REG :
 711              		.loc 1 389 0
 712 00e0 1A60     		str	r2, [r3]
 713              	.L41:
 392:Generated_Source\PSoC4/CyLib.c ****             }
 393:Generated_Source\PSoC4/CyLib.c ****             else
 394:Generated_Source\PSoC4/CyLib.c ****             {
 395:Generated_Source\PSoC4/CyLib.c ****                 /* Do nothing */
 396:Generated_Source\PSoC4/CyLib.c ****             }
 397:Generated_Source\PSoC4/CyLib.c ****             
 398:Generated_Source\PSoC4/CyLib.c ****         #endif  /* (CY_IP_SRSSV2) */
 399:Generated_Source\PSoC4/CyLib.c **** 
 400:Generated_Source\PSoC4/CyLib.c ****         CY_SYS_CLK_USBDEVv2_CR1_REG |= CY_SYS_CLK_USBDEVv2_CR1_ENABLE_LOCK;
 714              		.loc 1 400 0
 715 00e2 144B     		ldr	r3, .L44+60
 716 00e4 134A     		ldr	r2, .L44+60
 717 00e6 1268     		ldr	r2, [r2]
 718 00e8 0221     		movs	r1, #2
 719 00ea 0A43     		orrs	r2, r1
 720 00ec 1A60     		str	r2, [r3]
 401:Generated_Source\PSoC4/CyLib.c ****     }
 721              		.loc 1 401 0
 722 00ee C046     		nop
 723 00f0 BD46     		mov	sp, r7
 724 00f2 04B0     		add	sp, sp, #16
 725              		@ sp needed
ARM GAS  C:\Users\Jason\AppData\Local\Temp\cc7xyQyF.s 			page 21


 726 00f4 80BD     		pop	{r7, pc}
 727              	.L45:
 728 00f6 C046     		.align	2
 729              	.L44:
 730 00f8 00F3FF0F 		.word	268432128
 731 00fc 2CFF0B40 		.word	1074528044
 732 0100 00000000 		.word	cyImoFreqMhz2Reg
 733 0104 50000C40 		.word	1074528336
 734 0108 34FF0B40 		.word	1074528052
 735 010c 00000000 		.word	CySysClkImoTrim4
 736 0110 20FF0B40 		.word	1074528032
 737 0114 00000000 		.word	CySysClkImoTrim5
 738 0118 C0F1FF0F 		.word	268431808
 739 011c C1F1FF0F 		.word	268431809
 740 0120 28FF0B40 		.word	1074528040
 741 0124 C3F1FF0F 		.word	268431811
 742 0128 3FF3FF0F 		.word	268432191
 743 012c C2F1FF0F 		.word	268431810
 744 0130 3EF3FF0F 		.word	268432190
 745 0134 24002C40 		.word	1076625444
 746              		.cfi_endproc
 747              	.LFE6:
 748              		.size	CySysClkImoEnableUsbLock, .-CySysClkImoEnableUsbLock
 749              		.section	.text.CySysClkImoDisableUsbLock,"ax",%progbits
 750              		.align	2
 751              		.global	CySysClkImoDisableUsbLock
 752              		.code	16
 753              		.thumb_func
 754              		.type	CySysClkImoDisableUsbLock, %function
 755              	CySysClkImoDisableUsbLock:
 756              	.LFB7:
 402:Generated_Source\PSoC4/CyLib.c **** 
 403:Generated_Source\PSoC4/CyLib.c **** 
 404:Generated_Source\PSoC4/CyLib.c ****     /*******************************************************************************
 405:Generated_Source\PSoC4/CyLib.c ****     * Function Name: CySysClkImoDisableUsbLock
 406:Generated_Source\PSoC4/CyLib.c ****     ****************************************************************************//**
 407:Generated_Source\PSoC4/CyLib.c ****     *
 408:Generated_Source\PSoC4/CyLib.c ****     * Disables the IMO to USB lock feature.
 409:Generated_Source\PSoC4/CyLib.c ****     *
 410:Generated_Source\PSoC4/CyLib.c ****     * This function is called from CySysClkImoStop() function if USB lock selected
 411:Generated_Source\PSoC4/CyLib.c ****     * in the Design Wide Resources tab.
 412:Generated_Source\PSoC4/CyLib.c ****     *
 413:Generated_Source\PSoC4/CyLib.c ****     * This is applicable for PSoC 4200L family of devices only. For PSoC 4200L
 414:Generated_Source\PSoC4/CyLib.c ****     * devices, the IMO can lock to either WCO or USB, but not both.
 415:Generated_Source\PSoC4/CyLib.c ****     *
 416:Generated_Source\PSoC4/CyLib.c ****     *******************************************************************************/
 417:Generated_Source\PSoC4/CyLib.c ****     void CySysClkImoDisableUsbLock(void)
 418:Generated_Source\PSoC4/CyLib.c ****     {
 757              		.loc 1 418 0
 758              		.cfi_startproc
 759              		@ args = 0, pretend = 0, frame = 16
 760              		@ frame_needed = 1, uses_anonymous_args = 0
 761 0000 80B5     		push	{r7, lr}
 762              		.cfi_def_cfa_offset 8
 763              		.cfi_offset 7, -8
 764              		.cfi_offset 14, -4
 765 0002 84B0     		sub	sp, sp, #16
ARM GAS  C:\Users\Jason\AppData\Local\Temp\cc7xyQyF.s 			page 22


 766              		.cfi_def_cfa_offset 24
 767 0004 00AF     		add	r7, sp, #0
 768              		.cfi_def_cfa_register 7
 419:Generated_Source\PSoC4/CyLib.c ****         #if(CY_IP_SRSSV2)
 420:Generated_Source\PSoC4/CyLib.c ****             uint32 i;
 421:Generated_Source\PSoC4/CyLib.c ****             
 422:Generated_Source\PSoC4/CyLib.c ****             /* Check for new trim algorithm */
 423:Generated_Source\PSoC4/CyLib.c ****             uint32 CySysClkUsbCuSortTrim = ((CY_SFLASH_S1_TESTPGM_OLD_REV < (CY_SFLASH_S1_TESTPGM_R
 769              		.loc 1 423 0
 770 0006 254B     		ldr	r3, .L54
 771 0008 1B78     		ldrb	r3, [r3]
 772 000a DBB2     		uxtb	r3, r3
 773 000c 1A00     		movs	r2, r3
 774 000e 3F23     		movs	r3, #63
 775 0010 1340     		ands	r3, r2
 776 0012 042B     		cmp	r3, #4
 777 0014 01D9     		bls	.L47
 778              		.loc 1 423 0 is_stmt 0 discriminator 1
 779 0016 0123     		movs	r3, #1
 780 0018 00E0     		b	.L48
 781              	.L47:
 782              		.loc 1 423 0 discriminator 2
 783 001a 0023     		movs	r3, #0
 784              	.L48:
 785              		.loc 1 423 0 discriminator 4
 786 001c 7B60     		str	r3, [r7, #4]
 424:Generated_Source\PSoC4/CyLib.c ****                                                                             CY_SFLASH_S1_TESTPGM_RE
 425:Generated_Source\PSoC4/CyLib.c **** 
 426:Generated_Source\PSoC4/CyLib.c ****             /* Get current IMO frequency based on the register value */
 427:Generated_Source\PSoC4/CyLib.c ****             uint32 freq = CY_SYS_CLK_IMO_MIN_FREQ_MHZ;;
 787              		.loc 1 427 0 is_stmt 1 discriminator 4
 788 001e 0323     		movs	r3, #3
 789 0020 BB60     		str	r3, [r7, #8]
 428:Generated_Source\PSoC4/CyLib.c **** 
 429:Generated_Source\PSoC4/CyLib.c ****             for(i = 0u; i < CY_SYS_CLK_IMO_FREQ_TABLE_SIZE; i++)
 790              		.loc 1 429 0 discriminator 4
 791 0022 0023     		movs	r3, #0
 792 0024 FB60     		str	r3, [r7, #12]
 793 0026 11E0     		b	.L49
 794              	.L52:
 430:Generated_Source\PSoC4/CyLib.c ****             {
 431:Generated_Source\PSoC4/CyLib.c ****                 if ((uint8) (CY_SYS_CLK_IMO_TRIM2_REG & CY_SYS_CLK_IMO_FREQ_BITS_MASK) == cyImoFreq
 795              		.loc 1 431 0
 796 0028 1D4B     		ldr	r3, .L54+4
 797 002a 1B68     		ldr	r3, [r3]
 798 002c 1A00     		movs	r2, r3
 799 002e 3F23     		movs	r3, #63
 800 0030 1340     		ands	r3, r2
 801 0032 1C49     		ldr	r1, .L54+8
 802 0034 FA68     		ldr	r2, [r7, #12]
 803 0036 8A18     		adds	r2, r1, r2
 804 0038 1278     		ldrb	r2, [r2]
 805 003a 9342     		cmp	r3, r2
 806 003c 03D1     		bne	.L50
 432:Generated_Source\PSoC4/CyLib.c ****                 {
 433:Generated_Source\PSoC4/CyLib.c ****                     freq = i + CY_SYS_CLK_IMO_FREQ_TABLE_OFFSET;
 807              		.loc 1 433 0
ARM GAS  C:\Users\Jason\AppData\Local\Temp\cc7xyQyF.s 			page 23


 808 003e FB68     		ldr	r3, [r7, #12]
 809 0040 0333     		adds	r3, r3, #3
 810 0042 BB60     		str	r3, [r7, #8]
 434:Generated_Source\PSoC4/CyLib.c ****                     break;
 811              		.loc 1 434 0
 812 0044 05E0     		b	.L51
 813              	.L50:
 429:Generated_Source\PSoC4/CyLib.c ****             {
 814              		.loc 1 429 0 discriminator 2
 815 0046 FB68     		ldr	r3, [r7, #12]
 816 0048 0133     		adds	r3, r3, #1
 817 004a FB60     		str	r3, [r7, #12]
 818              	.L49:
 429:Generated_Source\PSoC4/CyLib.c ****             {
 819              		.loc 1 429 0 is_stmt 0 discriminator 1
 820 004c FB68     		ldr	r3, [r7, #12]
 821 004e 2D2B     		cmp	r3, #45
 822 0050 EAD9     		bls	.L52
 823              	.L51:
 435:Generated_Source\PSoC4/CyLib.c ****                 }
 436:Generated_Source\PSoC4/CyLib.c ****             }           
 437:Generated_Source\PSoC4/CyLib.c ****         #endif  /* (CY_IP_SRSSV2) */
 438:Generated_Source\PSoC4/CyLib.c ****         
 439:Generated_Source\PSoC4/CyLib.c ****         CY_SYS_CLK_USBDEVv2_CR1_REG &= (uint32) ~CY_SYS_CLK_USBDEVv2_CR1_ENABLE_LOCK;
 824              		.loc 1 439 0 is_stmt 1
 825 0052 154B     		ldr	r3, .L54+12
 826 0054 144A     		ldr	r2, .L54+12
 827 0056 1268     		ldr	r2, [r2]
 828 0058 0221     		movs	r1, #2
 829 005a 8A43     		bics	r2, r1
 830 005c 1A60     		str	r2, [r3]
 440:Generated_Source\PSoC4/CyLib.c **** 
 441:Generated_Source\PSoC4/CyLib.c ****         #if(CY_IP_SRSSV2)
 442:Generated_Source\PSoC4/CyLib.c ****             /* Restore CY_SYS_CLK_IMO_TRIM4_REG */
 443:Generated_Source\PSoC4/CyLib.c ****             CY_SYS_CLK_IMO_TRIM4_REG = ((CY_SYS_CLK_IMO_TRIM4_REG & (uint32) ~CY_SYS_CLK_IMO_TRIM4_
 831              		.loc 1 443 0
 832 005e 134A     		ldr	r2, .L54+16
 833 0060 124B     		ldr	r3, .L54+16
 834 0062 1B68     		ldr	r3, [r3]
 835 0064 1F21     		movs	r1, #31
 836 0066 8B43     		bics	r3, r1
 837 0068 1900     		movs	r1, r3
 444:Generated_Source\PSoC4/CyLib.c ****                                         (CySysClkImoTrim4 & CY_SYS_CLK_IMO_TRIM4_GAIN_MASK));
 838              		.loc 1 444 0
 839 006a 114B     		ldr	r3, .L54+20
 840 006c 1B68     		ldr	r3, [r3]
 841 006e 1F20     		movs	r0, #31
 842 0070 0340     		ands	r3, r0
 443:Generated_Source\PSoC4/CyLib.c ****                                         (CySysClkImoTrim4 & CY_SYS_CLK_IMO_TRIM4_GAIN_MASK));
 843              		.loc 1 443 0
 844 0072 0B43     		orrs	r3, r1
 845 0074 1360     		str	r3, [r2]
 445:Generated_Source\PSoC4/CyLib.c **** 
 446:Generated_Source\PSoC4/CyLib.c ****             if(0u != CySysClkUsbCuSortTrim)
 846              		.loc 1 446 0
 847 0076 7B68     		ldr	r3, [r7, #4]
 848 0078 002B     		cmp	r3, #0
ARM GAS  C:\Users\Jason\AppData\Local\Temp\cc7xyQyF.s 			page 24


 849 007a 03D0     		beq	.L53
 447:Generated_Source\PSoC4/CyLib.c ****             {
 448:Generated_Source\PSoC4/CyLib.c ****                 CY_PWR_BG_TRIM5_REG = CySysClkImoTrim5;
 850              		.loc 1 448 0
 851 007c 0D4A     		ldr	r2, .L54+24
 852 007e 0E4B     		ldr	r3, .L54+28
 853 0080 1B68     		ldr	r3, [r3]
 854 0082 1360     		str	r3, [r2]
 855              	.L53:
 449:Generated_Source\PSoC4/CyLib.c ****             }
 450:Generated_Source\PSoC4/CyLib.c ****             
 451:Generated_Source\PSoC4/CyLib.c ****             CY_SYS_CLK_IMO_TRIM1_REG = CY_SFLASH_IMO_TRIM_REG(freq - CY_SYS_CLK_IMO_FREQ_TABLE_OFFS
 856              		.loc 1 451 0
 857 0084 0D4B     		ldr	r3, .L54+32
 858 0086 BA68     		ldr	r2, [r7, #8]
 859 0088 0D49     		ldr	r1, .L54+36
 860 008a 8C46     		mov	ip, r1
 861 008c 6244     		add	r2, r2, ip
 862 008e 1278     		ldrb	r2, [r2]
 863 0090 D2B2     		uxtb	r2, r2
 864 0092 1A60     		str	r2, [r3]
 452:Generated_Source\PSoC4/CyLib.c ****             
 453:Generated_Source\PSoC4/CyLib.c ****         #endif  /* (CY_IP_SRSSV2) */
 454:Generated_Source\PSoC4/CyLib.c ****     }
 865              		.loc 1 454 0
 866 0094 C046     		nop
 867 0096 BD46     		mov	sp, r7
 868 0098 04B0     		add	sp, sp, #16
 869              		@ sp needed
 870 009a 80BD     		pop	{r7, pc}
 871              	.L55:
 872              		.align	2
 873              	.L54:
 874 009c 00F3FF0F 		.word	268432128
 875 00a0 2CFF0B40 		.word	1074528044
 876 00a4 00000000 		.word	cyImoFreqMhz2Reg
 877 00a8 24002C40 		.word	1076625444
 878 00ac 34FF0B40 		.word	1074528052
 879 00b0 00000000 		.word	CySysClkImoTrim4
 880 00b4 20FF0B40 		.word	1074528032
 881 00b8 00000000 		.word	CySysClkImoTrim5
 882 00bc 28FF0B40 		.word	1074528040
 883 00c0 4DF3FF0F 		.word	268432205
 884              		.cfi_endproc
 885              	.LFE7:
 886              		.size	CySysClkImoDisableUsbLock, .-CySysClkImoDisableUsbLock
 887              		.section	.text.CySysClkImoGetUsbLock,"ax",%progbits
 888              		.align	2
 889              		.global	CySysClkImoGetUsbLock
 890              		.code	16
 891              		.thumb_func
 892              		.type	CySysClkImoGetUsbLock, %function
 893              	CySysClkImoGetUsbLock:
 894              	.LFB8:
 455:Generated_Source\PSoC4/CyLib.c **** 
 456:Generated_Source\PSoC4/CyLib.c **** 
 457:Generated_Source\PSoC4/CyLib.c ****     /*******************************************************************************
ARM GAS  C:\Users\Jason\AppData\Local\Temp\cc7xyQyF.s 			page 25


 458:Generated_Source\PSoC4/CyLib.c ****     * Function Name: CySysClkImoGetUsbLock
 459:Generated_Source\PSoC4/CyLib.c ****     ****************************************************************************//**
 460:Generated_Source\PSoC4/CyLib.c ****     *
 461:Generated_Source\PSoC4/CyLib.c ****     * Reports the IMO to USB lock enable state.
 462:Generated_Source\PSoC4/CyLib.c ****     *
 463:Generated_Source\PSoC4/CyLib.c ****     * This is applicable for PSoC 4200L family of devices only. For PSoC 4200L
 464:Generated_Source\PSoC4/CyLib.c ****     * devices, the IMO can lock to either WCO or USB, but not both.
 465:Generated_Source\PSoC4/CyLib.c ****     *
 466:Generated_Source\PSoC4/CyLib.c ****     * \return 1 if IMO to USB lock is enabled.
 467:Generated_Source\PSoC4/CyLib.c ****     * \return 0 if IMO to USB lock is disabled.
 468:Generated_Source\PSoC4/CyLib.c ****     *
 469:Generated_Source\PSoC4/CyLib.c ****     *******************************************************************************/
 470:Generated_Source\PSoC4/CyLib.c ****     uint32 CySysClkImoGetUsbLock(void)
 471:Generated_Source\PSoC4/CyLib.c ****     {
 895              		.loc 1 471 0
 896              		.cfi_startproc
 897              		@ args = 0, pretend = 0, frame = 0
 898              		@ frame_needed = 1, uses_anonymous_args = 0
 899 0000 80B5     		push	{r7, lr}
 900              		.cfi_def_cfa_offset 8
 901              		.cfi_offset 7, -8
 902              		.cfi_offset 14, -4
 903 0002 00AF     		add	r7, sp, #0
 904              		.cfi_def_cfa_register 7
 472:Generated_Source\PSoC4/CyLib.c ****         return ((0u != (CY_SYS_CLK_USBDEVv2_CR1_REG & CY_SYS_CLK_USBDEVv2_CR1_ENABLE_LOCK)) ?
 905              		.loc 1 472 0
 906 0004 054B     		ldr	r3, .L60
 907 0006 1B68     		ldr	r3, [r3]
 908 0008 0222     		movs	r2, #2
 909 000a 1340     		ands	r3, r2
 473:Generated_Source\PSoC4/CyLib.c ****                 (uint32) 1u :
 910              		.loc 1 473 0
 911 000c 01D0     		beq	.L57
 912              		.loc 1 473 0 is_stmt 0 discriminator 1
 913 000e 0123     		movs	r3, #1
 472:Generated_Source\PSoC4/CyLib.c ****         return ((0u != (CY_SYS_CLK_USBDEVv2_CR1_REG & CY_SYS_CLK_USBDEVv2_CR1_ENABLE_LOCK)) ?
 914              		.loc 1 472 0 is_stmt 1 discriminator 1
 915 0010 00E0     		b	.L59
 916              	.L57:
 917              		.loc 1 473 0 discriminator 2
 918 0012 0023     		movs	r3, #0
 919              	.L59:
 474:Generated_Source\PSoC4/CyLib.c ****                 (uint32) 0u);
 475:Generated_Source\PSoC4/CyLib.c ****     }
 920              		.loc 1 475 0 discriminator 1
 921 0014 1800     		movs	r0, r3
 922 0016 BD46     		mov	sp, r7
 923              		@ sp needed
 924 0018 80BD     		pop	{r7, pc}
 925              	.L61:
 926 001a C046     		.align	2
 927              	.L60:
 928 001c 24002C40 		.word	1076625444
 929              		.cfi_endproc
 930              	.LFE8:
 931              		.size	CySysClkImoGetUsbLock, .-CySysClkImoGetUsbLock
 932              		.section	.text.CySysClkWriteHfclkDirect,"ax",%progbits
ARM GAS  C:\Users\Jason\AppData\Local\Temp\cc7xyQyF.s 			page 26


 933              		.align	2
 934              		.global	CySysClkWriteHfclkDirect
 935              		.code	16
 936              		.thumb_func
 937              		.type	CySysClkWriteHfclkDirect, %function
 938              	CySysClkWriteHfclkDirect:
 939              	.LFB9:
 476:Generated_Source\PSoC4/CyLib.c **** #endif  /* (CY_IP_IMO_TRIMMABLE_BY_USB) */
 477:Generated_Source\PSoC4/CyLib.c **** 
 478:Generated_Source\PSoC4/CyLib.c **** 
 479:Generated_Source\PSoC4/CyLib.c **** 
 480:Generated_Source\PSoC4/CyLib.c **** /*******************************************************************************
 481:Generated_Source\PSoC4/CyLib.c **** * Function Name: CySysClkWriteHfclkDirect
 482:Generated_Source\PSoC4/CyLib.c **** ****************************************************************************//**
 483:Generated_Source\PSoC4/CyLib.c **** *
 484:Generated_Source\PSoC4/CyLib.c **** * Selects the direct source for the HFCLK.
 485:Generated_Source\PSoC4/CyLib.c **** *
 486:Generated_Source\PSoC4/CyLib.c **** * The new source must be running and stable before calling this function.
 487:Generated_Source\PSoC4/CyLib.c **** *
 488:Generated_Source\PSoC4/CyLib.c **** * PSoC 4000:
 489:Generated_Source\PSoC4/CyLib.c **** * The SYSCLK has a maximum speed of 16 MHz, so HFCLK and SYSCLK dividers should
 490:Generated_Source\PSoC4/CyLib.c **** * be selected in a way to not to exceed 16 MHz for the System clock.
 491:Generated_Source\PSoC4/CyLib.c **** *
 492:Generated_Source\PSoC4/CyLib.c **** * If the SYSCLK clock frequency increases during device operation, call
 493:Generated_Source\PSoC4/CyLib.c **** * CySysFlashSetWaitCycles() with the appropriate parameter to adjust the number
 494:Generated_Source\PSoC4/CyLib.c **** * of clock cycles the cache will wait before sampling data comes back from
 495:Generated_Source\PSoC4/CyLib.c **** * Flash. If the SYSCLK clock frequency decreases, you can call
 496:Generated_Source\PSoC4/CyLib.c **** * CySysFlashSetWaitCycles() to improve the CPU performance. See
 497:Generated_Source\PSoC4/CyLib.c **** * CySysFlashSetWaitCycles() description for more information.
 498:Generated_Source\PSoC4/CyLib.c **** *
 499:Generated_Source\PSoC4/CyLib.c **** * Do not select PLL as the source for HFCLK if PLL output frequency exceeds
 500:Generated_Source\PSoC4/CyLib.c **** * maximum permissible value for HFCLK.
 501:Generated_Source\PSoC4/CyLib.c **** *
 502:Generated_Source\PSoC4/CyLib.c **** * \param clkSelect One of the available HFCLK direct sources.
 503:Generated_Source\PSoC4/CyLib.c **** * CY_SYS_CLK_HFCLK_IMO     IMO.
 504:Generated_Source\PSoC4/CyLib.c **** * CY_SYS_CLK_HFCLK_EXTCLK  External clock pin.
 505:Generated_Source\PSoC4/CyLib.c **** * CY_SYS_CLK_HFCLK_ECO     External crystal oscillator. Applicable for
 506:Generated_Source\PSoC4/CyLib.c **** *                          PSoC 4100 BLE / PSoC 4200 BLE / PSoC 4200L /
 507:Generated_Source\PSoC4/CyLib.c **** *                          4100S with ECO.
 508:Generated_Source\PSoC4/CyLib.c **** * CY_SYS_CLK_HFCLK_PLL0    PLL#0. Applicable for PSoC 4200L /
 509:Generated_Source\PSoC4/CyLib.c **** *                          4100S with PLL.
 510:Generated_Source\PSoC4/CyLib.c **** * CY_SYS_CLK_HFCLK_PLL1    PLL#1. Applicable for PSoC 4200L.
 511:Generated_Source\PSoC4/CyLib.c **** *
 512:Generated_Source\PSoC4/CyLib.c **** *******************************************************************************/
 513:Generated_Source\PSoC4/CyLib.c **** void CySysClkWriteHfclkDirect(uint32 clkSelect)
 514:Generated_Source\PSoC4/CyLib.c **** {
 940              		.loc 1 514 0
 941              		.cfi_startproc
 942              		@ args = 0, pretend = 0, frame = 16
 943              		@ frame_needed = 1, uses_anonymous_args = 0
 944 0000 90B5     		push	{r4, r7, lr}
 945              		.cfi_def_cfa_offset 12
 946              		.cfi_offset 4, -12
 947              		.cfi_offset 7, -8
 948              		.cfi_offset 14, -4
 949 0002 85B0     		sub	sp, sp, #20
 950              		.cfi_def_cfa_offset 32
ARM GAS  C:\Users\Jason\AppData\Local\Temp\cc7xyQyF.s 			page 27


 951 0004 00AF     		add	r7, sp, #0
 952              		.cfi_def_cfa_register 7
 953 0006 7860     		str	r0, [r7, #4]
 515:Generated_Source\PSoC4/CyLib.c ****     uint8  interruptState;
 516:Generated_Source\PSoC4/CyLib.c ****     uint32 tmpReg;
 517:Generated_Source\PSoC4/CyLib.c ****     
 518:Generated_Source\PSoC4/CyLib.c ****     #if (CY_IP_SRSSLT && CY_IP_PLL)
 519:Generated_Source\PSoC4/CyLib.c ****         uint8 i = 0u;
 520:Generated_Source\PSoC4/CyLib.c ****     #endif /* (CY_IP_SRSSLT && CY_IP_PLL) */
 521:Generated_Source\PSoC4/CyLib.c **** 
 522:Generated_Source\PSoC4/CyLib.c ****     interruptState = CyEnterCriticalSection();
 954              		.loc 1 522 0
 955 0008 0B23     		movs	r3, #11
 956 000a FC18     		adds	r4, r7, r3
 957 000c FFF7FEFF 		bl	CyEnterCriticalSection
 958 0010 0300     		movs	r3, r0
 959 0012 2370     		strb	r3, [r4]
 523:Generated_Source\PSoC4/CyLib.c **** 
 524:Generated_Source\PSoC4/CyLib.c **** #if (CY_IP_SRSSLT && CY_IP_PLL)
 525:Generated_Source\PSoC4/CyLib.c ****     if ((CY_SYS_CLK_HFCLK_PLL0 == clkSelect) || (CY_SYS_CLK_HFCLK_ECO == clkSelect))
 526:Generated_Source\PSoC4/CyLib.c ****     {
 527:Generated_Source\PSoC4/CyLib.c ****         tmpReg = CY_SYS_CLK_SELECT_REG & ~CY_SYS_CLK_SELECT_DIRECT_SEL_MASK;
 528:Generated_Source\PSoC4/CyLib.c ****         tmpReg |= CY_SYS_CLK_HFCLK_IMO;
 529:Generated_Source\PSoC4/CyLib.c ****         CY_SYS_CLK_SELECT_REG = tmpReg;        
 530:Generated_Source\PSoC4/CyLib.c ****         
 531:Generated_Source\PSoC4/CyLib.c ****         /* SRSSLT block does not have registers to select PLL. It is part of EXCO */ 
 532:Generated_Source\PSoC4/CyLib.c ****         tmpReg = CY_SYS_ECO_CLK_SELECT_REG & ~CY_SYS_ECO_CLK_SELECT_ECO_PLL_MASK;
 533:Generated_Source\PSoC4/CyLib.c ****         tmpReg |= ((clkSelect & CY_SYS_CLK_SELECT_HFCLK_SEL_PLL_MASK) >> CY_SYS_CLK_SELECT_HFCLK_PL
 534:Generated_Source\PSoC4/CyLib.c ****         CY_SYS_ECO_CLK_SELECT_REG = tmpReg;
 535:Generated_Source\PSoC4/CyLib.c ****         
 536:Generated_Source\PSoC4/CyLib.c ****         /* Generate clock sequence to change clock source in CY_SYS_ECO_CLK_SELECT_REG */
 537:Generated_Source\PSoC4/CyLib.c ****         CY_SYS_EXCO_PGM_CLK_REG |= CY_SYS_EXCO_PGM_CLK_ENABLE_MASK;
 538:Generated_Source\PSoC4/CyLib.c ****         
 539:Generated_Source\PSoC4/CyLib.c ****         for(i = 0u; i < CY_SYS_EXCO_PGM_CLK_SEQ_GENERATOR; i++)
 540:Generated_Source\PSoC4/CyLib.c ****         {
 541:Generated_Source\PSoC4/CyLib.c ****             CY_SYS_EXCO_PGM_CLK_REG |= CY_SYS_EXCO_PGM_CLK_CLK_ECO_MASK;
 542:Generated_Source\PSoC4/CyLib.c ****             CY_SYS_EXCO_PGM_CLK_REG &= ~CY_SYS_EXCO_PGM_CLK_CLK_ECO_MASK;
 543:Generated_Source\PSoC4/CyLib.c ****         }
 544:Generated_Source\PSoC4/CyLib.c ****         
 545:Generated_Source\PSoC4/CyLib.c ****         CY_SYS_EXCO_PGM_CLK_REG &= ~CY_SYS_EXCO_PGM_CLK_ENABLE_MASK;    
 546:Generated_Source\PSoC4/CyLib.c ****     }
 547:Generated_Source\PSoC4/CyLib.c **** #endif /* (CY_IP_SRSSLT && CY_IP_PLL) */
 548:Generated_Source\PSoC4/CyLib.c **** 
 549:Generated_Source\PSoC4/CyLib.c ****     tmpReg = CY_SYS_CLK_SELECT_REG & ~(CY_SYS_CLK_SELECT_DIRECT_SEL_MASK |
 960              		.loc 1 549 0
 961 0014 144B     		ldr	r3, .L66
 962 0016 1B68     		ldr	r3, [r3]
 963 0018 144A     		ldr	r2, .L66+4
 964 001a 1340     		ands	r3, r2
 965 001c FB60     		str	r3, [r7, #12]
 550:Generated_Source\PSoC4/CyLib.c ****                                        CY_SYS_CLK_SELECT_HFCLK_SEL_MASK);
 551:Generated_Source\PSoC4/CyLib.c **** 
 552:Generated_Source\PSoC4/CyLib.c **** #if (CY_IP_SRSSV2 && CY_IP_PLL)
 553:Generated_Source\PSoC4/CyLib.c ****     if ((CY_SYS_CLK_HFCLK_PLL0 == clkSelect) || (CY_SYS_CLK_HFCLK_PLL1 == clkSelect))
 966              		.loc 1 553 0
 967 001e 7A68     		ldr	r2, [r7, #4]
 968 0020 8023     		movs	r3, #128
ARM GAS  C:\Users\Jason\AppData\Local\Temp\cc7xyQyF.s 			page 28


 969 0022 9B02     		lsls	r3, r3, #10
 970 0024 9A42     		cmp	r2, r3
 971 0026 04D0     		beq	.L63
 972              		.loc 1 553 0 is_stmt 0 discriminator 1
 973 0028 7A68     		ldr	r2, [r7, #4]
 974 002a 8023     		movs	r3, #128
 975 002c 5B02     		lsls	r3, r3, #9
 976 002e 9A42     		cmp	r2, r3
 977 0030 07D1     		bne	.L64
 978              	.L63:
 554:Generated_Source\PSoC4/CyLib.c ****     {
 555:Generated_Source\PSoC4/CyLib.c ****         tmpReg |= (clkSelect & CY_SYS_CLK_SELECT_HFCLK_SEL_MASK);
 979              		.loc 1 555 0 is_stmt 1
 980 0032 7A68     		ldr	r2, [r7, #4]
 981 0034 C023     		movs	r3, #192
 982 0036 9B02     		lsls	r3, r3, #10
 983 0038 1340     		ands	r3, r2
 984 003a FA68     		ldr	r2, [r7, #12]
 985 003c 1343     		orrs	r3, r2
 986 003e FB60     		str	r3, [r7, #12]
 987 0040 05E0     		b	.L65
 988              	.L64:
 556:Generated_Source\PSoC4/CyLib.c ****     }
 557:Generated_Source\PSoC4/CyLib.c ****     else
 558:Generated_Source\PSoC4/CyLib.c **** #endif /* (CY_IP_SRSSV2 && CY_IP_PLL) */
 559:Generated_Source\PSoC4/CyLib.c ****     {
 560:Generated_Source\PSoC4/CyLib.c ****         tmpReg |= (clkSelect & CY_SYS_CLK_SELECT_DIRECT_SEL_MASK);
 989              		.loc 1 560 0
 990 0042 7B68     		ldr	r3, [r7, #4]
 991 0044 0722     		movs	r2, #7
 992 0046 1340     		ands	r3, r2
 993 0048 FA68     		ldr	r2, [r7, #12]
 994 004a 1343     		orrs	r3, r2
 995 004c FB60     		str	r3, [r7, #12]
 996              	.L65:
 561:Generated_Source\PSoC4/CyLib.c ****     }   
 562:Generated_Source\PSoC4/CyLib.c ****     
 563:Generated_Source\PSoC4/CyLib.c ****     CY_SYS_CLK_SELECT_REG = tmpReg;
 997              		.loc 1 563 0
 998 004e 064B     		ldr	r3, .L66
 999 0050 FA68     		ldr	r2, [r7, #12]
 1000 0052 1A60     		str	r2, [r3]
 564:Generated_Source\PSoC4/CyLib.c ****     
 565:Generated_Source\PSoC4/CyLib.c ****     CyExitCriticalSection(interruptState);
 1001              		.loc 1 565 0
 1002 0054 0B23     		movs	r3, #11
 1003 0056 FB18     		adds	r3, r7, r3
 1004 0058 1B78     		ldrb	r3, [r3]
 1005 005a 1800     		movs	r0, r3
 1006 005c FFF7FEFF 		bl	CyExitCriticalSection
 566:Generated_Source\PSoC4/CyLib.c **** }
 1007              		.loc 1 566 0
 1008 0060 C046     		nop
 1009 0062 BD46     		mov	sp, r7
 1010 0064 05B0     		add	sp, sp, #20
 1011              		@ sp needed
 1012 0066 90BD     		pop	{r4, r7, pc}
ARM GAS  C:\Users\Jason\AppData\Local\Temp\cc7xyQyF.s 			page 29


 1013              	.L67:
 1014              		.align	2
 1015              	.L66:
 1016 0068 00010B40 		.word	1074462976
 1017 006c F8FFFCFF 		.word	-196616
 1018              		.cfi_endproc
 1019              	.LFE9:
 1020              		.size	CySysClkWriteHfclkDirect, .-CySysClkWriteHfclkDirect
 1021              		.section	.text.CySysEnablePumpClock,"ax",%progbits
 1022              		.align	2
 1023              		.global	CySysEnablePumpClock
 1024              		.code	16
 1025              		.thumb_func
 1026              		.type	CySysEnablePumpClock, %function
 1027              	CySysEnablePumpClock:
 1028              	.LFB10:
 567:Generated_Source\PSoC4/CyLib.c **** 
 568:Generated_Source\PSoC4/CyLib.c **** 
 569:Generated_Source\PSoC4/CyLib.c **** /*******************************************************************************
 570:Generated_Source\PSoC4/CyLib.c **** * Function Name: CySysEnablePumpClock
 571:Generated_Source\PSoC4/CyLib.c **** ****************************************************************************//**
 572:Generated_Source\PSoC4/CyLib.c **** *
 573:Generated_Source\PSoC4/CyLib.c **** * Enables / disables the pump clock.
 574:Generated_Source\PSoC4/CyLib.c **** *
 575:Generated_Source\PSoC4/CyLib.c **** * \param enable  
 576:Generated_Source\PSoC4/CyLib.c **** * CY_SYS_CLK_PUMP_DISABLE - Disables the pump clock
 577:Generated_Source\PSoC4/CyLib.c **** * CY_SYS_CLK_PUMP_ENABLE - Enables and restores the operating source of 
 578:Generated_Source\PSoC4/CyLib.c **** * the pump clock.
 579:Generated_Source\PSoC4/CyLib.c **** *
 580:Generated_Source\PSoC4/CyLib.c **** * \sideeffect
 581:Generated_Source\PSoC4/CyLib.c **** *  Enabling/disabling the pump clock does not guarantee glitch free operation 
 582:Generated_Source\PSoC4/CyLib.c **** *  when changing the IMO parameters or clock divider settings.
 583:Generated_Source\PSoC4/CyLib.c **** *
 584:Generated_Source\PSoC4/CyLib.c **** *******************************************************************************/
 585:Generated_Source\PSoC4/CyLib.c **** void CySysEnablePumpClock(uint32 enable)
 586:Generated_Source\PSoC4/CyLib.c **** {
 1029              		.loc 1 586 0
 1030              		.cfi_startproc
 1031              		@ args = 0, pretend = 0, frame = 8
 1032              		@ frame_needed = 1, uses_anonymous_args = 0
 1033 0000 80B5     		push	{r7, lr}
 1034              		.cfi_def_cfa_offset 8
 1035              		.cfi_offset 7, -8
 1036              		.cfi_offset 14, -4
 1037 0002 82B0     		sub	sp, sp, #8
 1038              		.cfi_def_cfa_offset 16
 1039 0004 00AF     		add	r7, sp, #0
 1040              		.cfi_def_cfa_register 7
 1041 0006 7860     		str	r0, [r7, #4]
 587:Generated_Source\PSoC4/CyLib.c ****     #if(CY_IP_SRSSV2)
 588:Generated_Source\PSoC4/CyLib.c ****         if (0u != (CY_SYS_CLK_PUMP_ENABLE & enable))
 1042              		.loc 1 588 0
 1043 0008 7B68     		ldr	r3, [r7, #4]
 1044 000a 0122     		movs	r2, #1
 1045 000c 1340     		ands	r3, r2
 1046 000e 08D0     		beq	.L69
 589:Generated_Source\PSoC4/CyLib.c ****         {
ARM GAS  C:\Users\Jason\AppData\Local\Temp\cc7xyQyF.s 			page 30


 590:Generated_Source\PSoC4/CyLib.c ****             CY_SYS_CLK_IMO_CONFIG_REG |= (CySysClkPumpConfig << CY_SYS_CLK_IMO_CONFIG_PUMP_SEL_SHIF
 1047              		.loc 1 590 0
 1048 0010 0C4A     		ldr	r2, .L72
 1049 0012 0C4B     		ldr	r3, .L72
 1050 0014 1968     		ldr	r1, [r3]
 1051 0016 0C4B     		ldr	r3, .L72+4
 1052 0018 1B68     		ldr	r3, [r3]
 1053 001a 5B06     		lsls	r3, r3, #25
 1054 001c 0B43     		orrs	r3, r1
 1055 001e 1360     		str	r3, [r2]
 591:Generated_Source\PSoC4/CyLib.c ****         }
 592:Generated_Source\PSoC4/CyLib.c ****         else
 593:Generated_Source\PSoC4/CyLib.c ****         {
 594:Generated_Source\PSoC4/CyLib.c ****             CySysClkPumpConfig = (CY_SYS_CLK_IMO_CONFIG_REG >> CY_SYS_CLK_IMO_CONFIG_PUMP_SEL_SHIFT
 595:Generated_Source\PSoC4/CyLib.c ****                                   CY_SYS_CLK_IMO_CONFIG_PUMP_SEL_MASK;
 596:Generated_Source\PSoC4/CyLib.c ****             CY_SYS_CLK_IMO_CONFIG_REG &= ~(CY_SYS_CLK_IMO_CONFIG_PUMP_SEL_MASK << CY_SYS_CLK_IMO_CO
 597:Generated_Source\PSoC4/CyLib.c ****         }
 598:Generated_Source\PSoC4/CyLib.c ****     #else /* CY_IP_SRSSLT */
 599:Generated_Source\PSoC4/CyLib.c ****         if (0u != (CY_SYS_CLK_PUMP_ENABLE & enable))
 600:Generated_Source\PSoC4/CyLib.c ****         {
 601:Generated_Source\PSoC4/CyLib.c ****             CY_SYS_CLK_SELECT_REG |= (CySysClkPumpConfig << CY_SYS_CLK_SELECT_PUMP_SEL_SHIFT);
 602:Generated_Source\PSoC4/CyLib.c ****         }
 603:Generated_Source\PSoC4/CyLib.c ****         else
 604:Generated_Source\PSoC4/CyLib.c ****         {
 605:Generated_Source\PSoC4/CyLib.c ****             CySysClkPumpConfig = (CY_SYS_CLK_SELECT_REG >> CY_SYS_CLK_SELECT_PUMP_SEL_SHIFT) & 
 606:Generated_Source\PSoC4/CyLib.c ****                                   CY_SYS_CLK_SELECT_PUMP_SEL_MASK;
 607:Generated_Source\PSoC4/CyLib.c ****             CY_SYS_CLK_SELECT_REG &= ~(CY_SYS_CLK_SELECT_PUMP_SEL_MASK << CY_SYS_CLK_SELECT_PUMP_SE
 608:Generated_Source\PSoC4/CyLib.c ****         }
 609:Generated_Source\PSoC4/CyLib.c ****     #endif  /* (CY_IP_SRSSV2) */
 610:Generated_Source\PSoC4/CyLib.c **** }
 1056              		.loc 1 610 0
 1057 0020 0CE0     		b	.L71
 1058              	.L69:
 594:Generated_Source\PSoC4/CyLib.c ****                                   CY_SYS_CLK_IMO_CONFIG_PUMP_SEL_MASK;
 1059              		.loc 1 594 0
 1060 0022 084B     		ldr	r3, .L72
 1061 0024 1B68     		ldr	r3, [r3]
 1062 0026 5B0E     		lsrs	r3, r3, #25
 1063 0028 0722     		movs	r2, #7
 1064 002a 1A40     		ands	r2, r3
 1065 002c 064B     		ldr	r3, .L72+4
 1066 002e 1A60     		str	r2, [r3]
 596:Generated_Source\PSoC4/CyLib.c ****         }
 1067              		.loc 1 596 0
 1068 0030 044B     		ldr	r3, .L72
 1069 0032 044A     		ldr	r2, .L72
 1070 0034 1268     		ldr	r2, [r2]
 1071 0036 0549     		ldr	r1, .L72+8
 1072 0038 0A40     		ands	r2, r1
 1073 003a 1A60     		str	r2, [r3]
 1074              	.L71:
 1075              		.loc 1 610 0
 1076 003c C046     		nop
 1077 003e BD46     		mov	sp, r7
 1078 0040 02B0     		add	sp, sp, #8
 1079              		@ sp needed
 1080 0042 80BD     		pop	{r7, pc}
ARM GAS  C:\Users\Jason\AppData\Local\Temp\cc7xyQyF.s 			page 31


 1081              	.L73:
 1082              		.align	2
 1083              	.L72:
 1084 0044 08010B40 		.word	1074462984
 1085 0048 00000000 		.word	CySysClkPumpConfig
 1086 004c FFFFFFF1 		.word	-234881025
 1087              		.cfi_endproc
 1088              	.LFE10:
 1089              		.size	CySysEnablePumpClock, .-CySysEnablePumpClock
 1090              		.section	.text.CySysClkGetSysclkSource,"ax",%progbits
 1091              		.align	2
 1092              		.global	CySysClkGetSysclkSource
 1093              		.code	16
 1094              		.thumb_func
 1095              		.type	CySysClkGetSysclkSource, %function
 1096              	CySysClkGetSysclkSource:
 1097              	.LFB11:
 611:Generated_Source\PSoC4/CyLib.c **** 
 612:Generated_Source\PSoC4/CyLib.c **** 
 613:Generated_Source\PSoC4/CyLib.c **** /*******************************************************************************
 614:Generated_Source\PSoC4/CyLib.c **** * Function Name: CySysClkGetSysclkSource
 615:Generated_Source\PSoC4/CyLib.c **** ****************************************************************************//**
 616:Generated_Source\PSoC4/CyLib.c **** *
 617:Generated_Source\PSoC4/CyLib.c **** * Returns the source of the System clock.
 618:Generated_Source\PSoC4/CyLib.c **** *
 619:Generated_Source\PSoC4/CyLib.c **** * \return The same as \ref CySysClkWriteHfclkDirect() function parameters.
 620:Generated_Source\PSoC4/CyLib.c **** *
 621:Generated_Source\PSoC4/CyLib.c **** *******************************************************************************/
 622:Generated_Source\PSoC4/CyLib.c **** uint32 CySysClkGetSysclkSource(void)
 623:Generated_Source\PSoC4/CyLib.c **** {
 1098              		.loc 1 623 0
 1099              		.cfi_startproc
 1100              		@ args = 0, pretend = 0, frame = 8
 1101              		@ frame_needed = 1, uses_anonymous_args = 0
 1102 0000 90B5     		push	{r4, r7, lr}
 1103              		.cfi_def_cfa_offset 12
 1104              		.cfi_offset 4, -12
 1105              		.cfi_offset 7, -8
 1106              		.cfi_offset 14, -4
 1107 0002 83B0     		sub	sp, sp, #12
 1108              		.cfi_def_cfa_offset 24
 1109 0004 00AF     		add	r7, sp, #0
 1110              		.cfi_def_cfa_register 7
 624:Generated_Source\PSoC4/CyLib.c ****     uint8  interruptState;
 625:Generated_Source\PSoC4/CyLib.c ****     uint32 sysclkSource;
 626:Generated_Source\PSoC4/CyLib.c **** 
 627:Generated_Source\PSoC4/CyLib.c ****     interruptState = CyEnterCriticalSection();
 1111              		.loc 1 627 0
 1112 0006 FC1C     		adds	r4, r7, #3
 1113 0008 FFF7FEFF 		bl	CyEnterCriticalSection
 1114 000c 0300     		movs	r3, r0
 1115 000e 2370     		strb	r3, [r4]
 628:Generated_Source\PSoC4/CyLib.c **** 
 629:Generated_Source\PSoC4/CyLib.c **** #if (CY_IP_SRSSV2 && CY_IP_PLL)
 630:Generated_Source\PSoC4/CyLib.c ****     if ((CY_SYS_CLK_SELECT_REG & CY_SYS_CLK_SELECT_HFCLK_SEL_MASK) != 0u)
 1116              		.loc 1 630 0
 1117 0010 0D4B     		ldr	r3, .L78
ARM GAS  C:\Users\Jason\AppData\Local\Temp\cc7xyQyF.s 			page 32


 1118 0012 1A68     		ldr	r2, [r3]
 1119 0014 C023     		movs	r3, #192
 1120 0016 9B02     		lsls	r3, r3, #10
 1121 0018 1340     		ands	r3, r2
 1122 001a 06D0     		beq	.L75
 631:Generated_Source\PSoC4/CyLib.c ****     {
 632:Generated_Source\PSoC4/CyLib.c ****         sysclkSource = (CY_SYS_CLK_SELECT_REG & CY_SYS_CLK_SELECT_HFCLK_SEL_MASK);
 1123              		.loc 1 632 0
 1124 001c 0A4B     		ldr	r3, .L78
 1125 001e 1A68     		ldr	r2, [r3]
 1126 0020 C023     		movs	r3, #192
 1127 0022 9B02     		lsls	r3, r3, #10
 1128 0024 1340     		ands	r3, r2
 1129 0026 7B60     		str	r3, [r7, #4]
 1130 0028 04E0     		b	.L76
 1131              	.L75:
 633:Generated_Source\PSoC4/CyLib.c ****     }
 634:Generated_Source\PSoC4/CyLib.c ****     else
 635:Generated_Source\PSoC4/CyLib.c **** #endif /* (CY_IP_SRSSV2 && CY_IP_PLL) */
 636:Generated_Source\PSoC4/CyLib.c ****     {
 637:Generated_Source\PSoC4/CyLib.c ****         sysclkSource = (CY_SYS_CLK_SELECT_REG & CY_SYS_CLK_SELECT_DIRECT_SEL_MASK);
 1132              		.loc 1 637 0
 1133 002a 074B     		ldr	r3, .L78
 1134 002c 1B68     		ldr	r3, [r3]
 1135 002e 0722     		movs	r2, #7
 1136 0030 1340     		ands	r3, r2
 1137 0032 7B60     		str	r3, [r7, #4]
 1138              	.L76:
 638:Generated_Source\PSoC4/CyLib.c **** 
 639:Generated_Source\PSoC4/CyLib.c ****     #if (CY_IP_SRSSLT && CY_IP_PLL)
 640:Generated_Source\PSoC4/CyLib.c ****         sysclkSource |= (((uint32)(CY_SYS_ECO_CLK_SELECT_REG & CY_SYS_ECO_CLK_SELECT_ECO_PLL_MASK))
 641:Generated_Source\PSoC4/CyLib.c ****                          CY_SYS_CLK_SELECT_HFCLK_PLL_SHIFT);
 642:Generated_Source\PSoC4/CyLib.c ****     #endif /* (CY_IP_SRSSLT && CY_IP_PLL) */
 643:Generated_Source\PSoC4/CyLib.c ****         
 644:Generated_Source\PSoC4/CyLib.c ****     }
 645:Generated_Source\PSoC4/CyLib.c **** 
 646:Generated_Source\PSoC4/CyLib.c ****     CyExitCriticalSection(interruptState);
 1139              		.loc 1 646 0
 1140 0034 FB1C     		adds	r3, r7, #3
 1141 0036 1B78     		ldrb	r3, [r3]
 1142 0038 1800     		movs	r0, r3
 1143 003a FFF7FEFF 		bl	CyExitCriticalSection
 647:Generated_Source\PSoC4/CyLib.c **** 
 648:Generated_Source\PSoC4/CyLib.c ****     return (sysclkSource);
 1144              		.loc 1 648 0
 1145 003e 7B68     		ldr	r3, [r7, #4]
 649:Generated_Source\PSoC4/CyLib.c **** }
 1146              		.loc 1 649 0
 1147 0040 1800     		movs	r0, r3
 1148 0042 BD46     		mov	sp, r7
 1149 0044 03B0     		add	sp, sp, #12
 1150              		@ sp needed
 1151 0046 90BD     		pop	{r4, r7, pc}
 1152              	.L79:
 1153              		.align	2
 1154              	.L78:
 1155 0048 00010B40 		.word	1074462976
ARM GAS  C:\Users\Jason\AppData\Local\Temp\cc7xyQyF.s 			page 33


 1156              		.cfi_endproc
 1157              	.LFE11:
 1158              		.size	CySysClkGetSysclkSource, .-CySysClkGetSysclkSource
 1159              		.section	.text.CySysClkWriteSysclkDiv,"ax",%progbits
 1160              		.align	2
 1161              		.global	CySysClkWriteSysclkDiv
 1162              		.code	16
 1163              		.thumb_func
 1164              		.type	CySysClkWriteSysclkDiv, %function
 1165              	CySysClkWriteSysclkDiv:
 1166              	.LFB12:
 650:Generated_Source\PSoC4/CyLib.c **** 
 651:Generated_Source\PSoC4/CyLib.c **** 
 652:Generated_Source\PSoC4/CyLib.c **** /*******************************************************************************
 653:Generated_Source\PSoC4/CyLib.c **** * Function Name: CySysClkWriteSysclkDiv
 654:Generated_Source\PSoC4/CyLib.c **** ****************************************************************************//**
 655:Generated_Source\PSoC4/CyLib.c **** *
 656:Generated_Source\PSoC4/CyLib.c **** * Selects the prescaler divide amount for SYSCLK from HFCLK.
 657:Generated_Source\PSoC4/CyLib.c **** *
 658:Generated_Source\PSoC4/CyLib.c **** * PSoC 4000: The SYSCLK has the speed of 16 MHz, so HFCLK and SYSCLK dividers
 659:Generated_Source\PSoC4/CyLib.c **** * should be selected in a way, not to exceed 16 MHz for SYSCLK.
 660:Generated_Source\PSoC4/CyLib.c **** *
 661:Generated_Source\PSoC4/CyLib.c **** * PSoC 4100 \ PSoC 4100 BLE \ PSoC 4100M: The SYSCLK has the speed of 24 MHz,
 662:Generated_Source\PSoC4/CyLib.c **** * so HFCLK and SYSCLK dividers should be selected in a way, not to exceed 24 MHz
 663:Generated_Source\PSoC4/CyLib.c **** * for SYSCLK.
 664:Generated_Source\PSoC4/CyLib.c **** *
 665:Generated_Source\PSoC4/CyLib.c **** * If the SYSCLK clock frequency increases during the device operation, call
 666:Generated_Source\PSoC4/CyLib.c **** * \ref CySysFlashSetWaitCycles() with the appropriate parameter to adjust the
 667:Generated_Source\PSoC4/CyLib.c **** * number of clock cycles the cache will wait before sampling data comes back
 668:Generated_Source\PSoC4/CyLib.c **** * from Flash. If the SYSCLK clock frequency decreases, you can call
 669:Generated_Source\PSoC4/CyLib.c **** * \ref CySysFlashSetWaitCycles() to improve the CPU performance. See
 670:Generated_Source\PSoC4/CyLib.c **** * \ref CySysFlashSetWaitCycles() description for more information.
 671:Generated_Source\PSoC4/CyLib.c **** *
 672:Generated_Source\PSoC4/CyLib.c **** * \param divider Power of 2 prescaler selection
 673:Generated_Source\PSoC4/CyLib.c **** *  CY_SYS_CLK_SYSCLK_DIV1        SYSCLK = HFCLK / 1
 674:Generated_Source\PSoC4/CyLib.c **** *  CY_SYS_CLK_SYSCLK_DIV2        SYSCLK = HFCLK / 2
 675:Generated_Source\PSoC4/CyLib.c **** *  CY_SYS_CLK_SYSCLK_DIV4        SYSCLK = HFCLK / 4
 676:Generated_Source\PSoC4/CyLib.c **** *  CY_SYS_CLK_SYSCLK_DIV8        SYSCLK = HFCLK / 8
 677:Generated_Source\PSoC4/CyLib.c **** *  CY_SYS_CLK_SYSCLK_DIV16       SYSCLK = HFCLK / 16  (N/A for 4000 Family)
 678:Generated_Source\PSoC4/CyLib.c **** *  CY_SYS_CLK_SYSCLK_DIV32       SYSCLK = HFCLK / 32  (N/A for 4000 Family)
 679:Generated_Source\PSoC4/CyLib.c **** *  CY_SYS_CLK_SYSCLK_DIV64       SYSCLK = HFCLK / 64  (N/A for 4000 Family)
 680:Generated_Source\PSoC4/CyLib.c **** *  CY_SYS_CLK_SYSCLK_DIV128      SYSCLK = HFCLK / 128 (N/A for 4000 Family)
 681:Generated_Source\PSoC4/CyLib.c **** *
 682:Generated_Source\PSoC4/CyLib.c **** *******************************************************************************/
 683:Generated_Source\PSoC4/CyLib.c **** void CySysClkWriteSysclkDiv(uint32 divider)
 684:Generated_Source\PSoC4/CyLib.c **** {
 1167              		.loc 1 684 0
 1168              		.cfi_startproc
 1169              		@ args = 0, pretend = 0, frame = 16
 1170              		@ frame_needed = 1, uses_anonymous_args = 0
 1171 0000 90B5     		push	{r4, r7, lr}
 1172              		.cfi_def_cfa_offset 12
 1173              		.cfi_offset 4, -12
 1174              		.cfi_offset 7, -8
 1175              		.cfi_offset 14, -4
 1176 0002 85B0     		sub	sp, sp, #20
 1177              		.cfi_def_cfa_offset 32
ARM GAS  C:\Users\Jason\AppData\Local\Temp\cc7xyQyF.s 			page 34


 1178 0004 00AF     		add	r7, sp, #0
 1179              		.cfi_def_cfa_register 7
 1180 0006 7860     		str	r0, [r7, #4]
 685:Generated_Source\PSoC4/CyLib.c ****     uint8  interruptState;
 686:Generated_Source\PSoC4/CyLib.c **** 
 687:Generated_Source\PSoC4/CyLib.c ****     interruptState = CyEnterCriticalSection();
 1181              		.loc 1 687 0
 1182 0008 0F23     		movs	r3, #15
 1183 000a FC18     		adds	r4, r7, r3
 1184 000c FFF7FEFF 		bl	CyEnterCriticalSection
 1185 0010 0300     		movs	r3, r0
 1186 0012 2370     		strb	r3, [r4]
 688:Generated_Source\PSoC4/CyLib.c **** 
 689:Generated_Source\PSoC4/CyLib.c ****     CY_SYS_CLK_SELECT_REG = ((uint32)(((uint32)divider & CY_SYS_CLK_SELECT_SYSCLK_DIV_MASK) <<
 1187              		.loc 1 689 0
 1188 0014 0A4B     		ldr	r3, .L81
 1189 0016 7A68     		ldr	r2, [r7, #4]
 1190 0018 D104     		lsls	r1, r2, #19
 1191 001a E022     		movs	r2, #224
 1192 001c 9203     		lsls	r2, r2, #14
 1193 001e 1140     		ands	r1, r2
 690:Generated_Source\PSoC4/CyLib.c ****                                     CY_SYS_CLK_SELECT_SYSCLK_DIV_SHIFT)) |
 691:Generated_Source\PSoC4/CyLib.c ****                             (CY_SYS_CLK_SELECT_REG & ((uint32)(~(uint32)(CY_SYS_CLK_SELECT_SYSCLK_D
 1194              		.loc 1 691 0
 1195 0020 074A     		ldr	r2, .L81
 1196 0022 1268     		ldr	r2, [r2]
 1197 0024 0748     		ldr	r0, .L81+4
 1198 0026 0240     		ands	r2, r0
 690:Generated_Source\PSoC4/CyLib.c ****                                     CY_SYS_CLK_SELECT_SYSCLK_DIV_SHIFT)) |
 1199              		.loc 1 690 0
 1200 0028 0A43     		orrs	r2, r1
 689:Generated_Source\PSoC4/CyLib.c ****                                     CY_SYS_CLK_SELECT_SYSCLK_DIV_SHIFT)) |
 1201              		.loc 1 689 0
 1202 002a 1A60     		str	r2, [r3]
 692:Generated_Source\PSoC4/CyLib.c ****                                     CY_SYS_CLK_SELECT_SYSCLK_DIV_SHIFT))));
 693:Generated_Source\PSoC4/CyLib.c **** 
 694:Generated_Source\PSoC4/CyLib.c ****     CyExitCriticalSection(interruptState);
 1203              		.loc 1 694 0
 1204 002c 0F23     		movs	r3, #15
 1205 002e FB18     		adds	r3, r7, r3
 1206 0030 1B78     		ldrb	r3, [r3]
 1207 0032 1800     		movs	r0, r3
 1208 0034 FFF7FEFF 		bl	CyExitCriticalSection
 695:Generated_Source\PSoC4/CyLib.c **** }
 1209              		.loc 1 695 0
 1210 0038 C046     		nop
 1211 003a BD46     		mov	sp, r7
 1212 003c 05B0     		add	sp, sp, #20
 1213              		@ sp needed
 1214 003e 90BD     		pop	{r4, r7, pc}
 1215              	.L82:
 1216              		.align	2
 1217              	.L81:
 1218 0040 00010B40 		.word	1074462976
 1219 0044 FFFFC7FF 		.word	-3670017
 1220              		.cfi_endproc
 1221              	.LFE12:
ARM GAS  C:\Users\Jason\AppData\Local\Temp\cc7xyQyF.s 			page 35


 1222              		.size	CySysClkWriteSysclkDiv, .-CySysClkWriteSysclkDiv
 1223              		.section	.text.CySysClkWriteImoFreq,"ax",%progbits
 1224              		.align	2
 1225              		.global	CySysClkWriteImoFreq
 1226              		.code	16
 1227              		.thumb_func
 1228              		.type	CySysClkWriteImoFreq, %function
 1229              	CySysClkWriteImoFreq:
 1230              	.LFB13:
 696:Generated_Source\PSoC4/CyLib.c **** 
 697:Generated_Source\PSoC4/CyLib.c **** 
 698:Generated_Source\PSoC4/CyLib.c **** /*******************************************************************************
 699:Generated_Source\PSoC4/CyLib.c **** * Function Name: CySysClkWriteImoFreq
 700:Generated_Source\PSoC4/CyLib.c **** ****************************************************************************//**
 701:Generated_Source\PSoC4/CyLib.c **** *
 702:Generated_Source\PSoC4/CyLib.c **** * Sets the frequency of the IMO.
 703:Generated_Source\PSoC4/CyLib.c **** *
 704:Generated_Source\PSoC4/CyLib.c **** * PSoC 4000: The SYSCLK has the speed of 16 MHz, so HFCLK and SYSCLK dividers
 705:Generated_Source\PSoC4/CyLib.c **** * should be selected in a way, not to exceed 16 MHz for SYSCLK.
 706:Generated_Source\PSoC4/CyLib.c **** *
 707:Generated_Source\PSoC4/CyLib.c **** * PSoC 4100 \ PSoC 4100 BLE \ PSoC 4100M: The SYSCLK has the speed of 24 MHz,
 708:Generated_Source\PSoC4/CyLib.c **** * so HFCLK and SYSCLK dividers should be selected in a way, not to exceed 24 MHz
 709:Generated_Source\PSoC4/CyLib.c **** * for SYSCLK.
 710:Generated_Source\PSoC4/CyLib.c **** *
 711:Generated_Source\PSoC4/CyLib.c **** * For PSoC 4200M and PSoC 4200L device families, if WCO lock feature is enabled
 712:Generated_Source\PSoC4/CyLib.c **** * then this API will disable the lock, write the new IMO frequency and then
 713:Generated_Source\PSoC4/CyLib.c **** * re-enable the lock.
 714:Generated_Source\PSoC4/CyLib.c **** *
 715:Generated_Source\PSoC4/CyLib.c **** * For PSoC 4200L device families, this function enables the USB lock when 24 or
 716:Generated_Source\PSoC4/CyLib.c **** * 48 MHz passed as a parameter if the USB lock option is enabled in Design Wide
 717:Generated_Source\PSoC4/CyLib.c **** * Resources tab or CySysClkImoEnableUsbLock() was called before. Note the USB
 718:Generated_Source\PSoC4/CyLib.c **** * lock is disabled during IMO frequency change.
 719:Generated_Source\PSoC4/CyLib.c **** *
 720:Generated_Source\PSoC4/CyLib.c **** * The CPU is halted if new frequency is invalid and project is compiled
 721:Generated_Source\PSoC4/CyLib.c **** * in debug mode.
 722:Generated_Source\PSoC4/CyLib.c **** *
 723:Generated_Source\PSoC4/CyLib.c **** * If the SYSCLK clock frequency increases during the device operation, call
 724:Generated_Source\PSoC4/CyLib.c **** * \ref CySysFlashSetWaitCycles() with the appropriate parameter to adjust the
 725:Generated_Source\PSoC4/CyLib.c **** * number of clock cycles the cache will wait before sampling data comes back
 726:Generated_Source\PSoC4/CyLib.c **** * from Flash. If the SYSCLK clock frequency decreases, you can call
 727:Generated_Source\PSoC4/CyLib.c **** * \ref CySysFlashSetWaitCycles() to improve the CPU performance. See
 728:Generated_Source\PSoC4/CyLib.c **** * \ref CySysFlashSetWaitCycles() description for more information.
 729:Generated_Source\PSoC4/CyLib.c **** *
 730:Generated_Source\PSoC4/CyLib.c **** * PSoC 4000: The System Clock (SYSCLK) has maximum speed of 16 MHz, so HFCLK
 731:Generated_Source\PSoC4/CyLib.c **** * and SYSCLK dividers should be selected in a way, to not to exceed 16 MHz for
 732:Generated_Source\PSoC4/CyLib.c **** * the System clock.
 733:Generated_Source\PSoC4/CyLib.c **** *
 734:Generated_Source\PSoC4/CyLib.c **** * \param freq All PSoC 4 families excluding the following: Valid range [3-48]
 735:Generated_Source\PSoC4/CyLib.c **** * with step size equals 1. PSoC 4000: Valid values are 24, 32, and 48.
 736:Generated_Source\PSoC4/CyLib.c **** * PSoC 4000S / PSoC 4100S / PSoC Analog Coprocessor: Valid range [24-48] with 
 737:Generated_Source\PSoC4/CyLib.c **** * step size equals 4.
 738:Generated_Source\PSoC4/CyLib.c **** *
 739:Generated_Source\PSoC4/CyLib.c **** *******************************************************************************/
 740:Generated_Source\PSoC4/CyLib.c **** #if(CY_IP_SRSSV2)
 741:Generated_Source\PSoC4/CyLib.c ****     void CySysClkWriteImoFreq(uint32 freq)
 742:Generated_Source\PSoC4/CyLib.c ****     {
 1231              		.loc 1 742 0
ARM GAS  C:\Users\Jason\AppData\Local\Temp\cc7xyQyF.s 			page 36


 1232              		.cfi_startproc
 1233              		@ args = 0, pretend = 0, frame = 24
 1234              		@ frame_needed = 1, uses_anonymous_args = 0
 1235 0000 90B5     		push	{r4, r7, lr}
 1236              		.cfi_def_cfa_offset 12
 1237              		.cfi_offset 4, -12
 1238              		.cfi_offset 7, -8
 1239              		.cfi_offset 14, -4
 1240 0002 87B0     		sub	sp, sp, #28
 1241              		.cfi_def_cfa_offset 40
 1242 0004 00AF     		add	r7, sp, #0
 1243              		.cfi_def_cfa_register 7
 1244 0006 7860     		str	r0, [r7, #4]
 743:Generated_Source\PSoC4/CyLib.c ****         #if (CY_IP_FMLT)
 744:Generated_Source\PSoC4/CyLib.c ****             volatile uint32   parameters[2u];
 745:Generated_Source\PSoC4/CyLib.c ****             volatile uint32   regValues[4u];
 746:Generated_Source\PSoC4/CyLib.c ****         #else
 747:Generated_Source\PSoC4/CyLib.c ****             uint8  bgTrim4;
 748:Generated_Source\PSoC4/CyLib.c ****             uint8  bgTrim5;
 749:Generated_Source\PSoC4/CyLib.c ****             uint8  newImoTrim2Value;
 750:Generated_Source\PSoC4/CyLib.c ****             uint8  currentImoTrim2Value;
 751:Generated_Source\PSoC4/CyLib.c ****         #endif /* (CY_IP_FM) */
 752:Generated_Source\PSoC4/CyLib.c **** 
 753:Generated_Source\PSoC4/CyLib.c ****         #if (CY_IP_IMO_TRIMMABLE_BY_WCO)
 754:Generated_Source\PSoC4/CyLib.c ****             uint32 wcoLock = 0u;
 1245              		.loc 1 754 0
 1246 0008 0023     		movs	r3, #0
 1247 000a 3B61     		str	r3, [r7, #16]
 755:Generated_Source\PSoC4/CyLib.c ****         #endif  /* (CY_IP_IMO_TRIMMABLE_BY_WCO) */
 756:Generated_Source\PSoC4/CyLib.c **** 
 757:Generated_Source\PSoC4/CyLib.c ****         #if (CY_IP_IMO_TRIMMABLE_BY_USB)
 758:Generated_Source\PSoC4/CyLib.c ****             uint32 usbLock = 0u;
 1248              		.loc 1 758 0
 1249 000c 0023     		movs	r3, #0
 1250 000e FB60     		str	r3, [r7, #12]
 759:Generated_Source\PSoC4/CyLib.c ****         #endif  /* (CY_IP_IMO_TRIMMABLE_BY_USB) */
 760:Generated_Source\PSoC4/CyLib.c **** 
 761:Generated_Source\PSoC4/CyLib.c ****         uint8  interruptState;
 762:Generated_Source\PSoC4/CyLib.c **** 
 763:Generated_Source\PSoC4/CyLib.c **** 
 764:Generated_Source\PSoC4/CyLib.c ****         interruptState = CyEnterCriticalSection();
 1251              		.loc 1 764 0
 1252 0010 0B23     		movs	r3, #11
 1253 0012 FC18     		adds	r4, r7, r3
 1254 0014 FFF7FEFF 		bl	CyEnterCriticalSection
 1255 0018 0300     		movs	r3, r0
 1256 001a 2370     		strb	r3, [r4]
 765:Generated_Source\PSoC4/CyLib.c **** 
 766:Generated_Source\PSoC4/CyLib.c ****         #if (CY_IP_IMO_TRIMMABLE_BY_WCO)
 767:Generated_Source\PSoC4/CyLib.c ****             if(0u != CySysClkImoGetWcoLock())
 1257              		.loc 1 767 0
 1258 001c FFF7FEFF 		bl	CySysClkImoGetWcoLock
 1259 0020 031E     		subs	r3, r0, #0
 1260 0022 03D0     		beq	.L84
 768:Generated_Source\PSoC4/CyLib.c ****             {
 769:Generated_Source\PSoC4/CyLib.c ****                 wcoLock = 1u;
 1261              		.loc 1 769 0
ARM GAS  C:\Users\Jason\AppData\Local\Temp\cc7xyQyF.s 			page 37


 1262 0024 0123     		movs	r3, #1
 1263 0026 3B61     		str	r3, [r7, #16]
 770:Generated_Source\PSoC4/CyLib.c ****                 CySysClkImoDisableWcoLock();
 1264              		.loc 1 770 0
 1265 0028 FFF7FEFF 		bl	CySysClkImoDisableWcoLock
 1266              	.L84:
 771:Generated_Source\PSoC4/CyLib.c ****             }
 772:Generated_Source\PSoC4/CyLib.c ****         #endif  /* (CY_IP_IMO_TRIMMABLE_BY_WCO) */
 773:Generated_Source\PSoC4/CyLib.c **** 
 774:Generated_Source\PSoC4/CyLib.c **** 
 775:Generated_Source\PSoC4/CyLib.c ****         #if (CY_IP_IMO_TRIMMABLE_BY_USB)
 776:Generated_Source\PSoC4/CyLib.c **** 
 777:Generated_Source\PSoC4/CyLib.c ****             #if (CYDEV_IMO_TRIMMED_BY_USB == 0u)
 778:Generated_Source\PSoC4/CyLib.c ****                 if(0u != CySysClkImoGetUsbLock())
 1267              		.loc 1 778 0
 1268 002c FFF7FEFF 		bl	CySysClkImoGetUsbLock
 1269 0030 031E     		subs	r3, r0, #0
 1270 0032 09D0     		beq	.L85
 779:Generated_Source\PSoC4/CyLib.c ****                 {
 780:Generated_Source\PSoC4/CyLib.c ****             #endif  /* (CYDEV_IMO_TRIMMED_BY_USB == 0u) */
 781:Generated_Source\PSoC4/CyLib.c **** 
 782:Generated_Source\PSoC4/CyLib.c ****                 if ((24u == freq) || (48u == freq))
 1271              		.loc 1 782 0
 1272 0034 7B68     		ldr	r3, [r7, #4]
 1273 0036 182B     		cmp	r3, #24
 1274 0038 02D0     		beq	.L86
 1275              		.loc 1 782 0 is_stmt 0 discriminator 1
 1276 003a 7B68     		ldr	r3, [r7, #4]
 1277 003c 302B     		cmp	r3, #48
 1278 003e 03D1     		bne	.L85
 1279              	.L86:
 783:Generated_Source\PSoC4/CyLib.c ****                 {
 784:Generated_Source\PSoC4/CyLib.c ****                     usbLock = 1u;
 1280              		.loc 1 784 0 is_stmt 1
 1281 0040 0123     		movs	r3, #1
 1282 0042 FB60     		str	r3, [r7, #12]
 785:Generated_Source\PSoC4/CyLib.c ****                     CySysClkImoDisableUsbLock();
 1283              		.loc 1 785 0
 1284 0044 FFF7FEFF 		bl	CySysClkImoDisableUsbLock
 1285              	.L85:
 786:Generated_Source\PSoC4/CyLib.c ****                 }
 787:Generated_Source\PSoC4/CyLib.c **** 
 788:Generated_Source\PSoC4/CyLib.c ****             #if (CYDEV_IMO_TRIMMED_BY_USB == 0u)
 789:Generated_Source\PSoC4/CyLib.c ****                 }
 790:Generated_Source\PSoC4/CyLib.c ****             #endif  /* (CYDEV_IMO_TRIMMED_BY_USB == 0u) */
 791:Generated_Source\PSoC4/CyLib.c **** 
 792:Generated_Source\PSoC4/CyLib.c ****         #endif  /* (CYDEV_IMO_TRIMMED_BY_USB == 0u) */
 793:Generated_Source\PSoC4/CyLib.c **** 
 794:Generated_Source\PSoC4/CyLib.c **** 
 795:Generated_Source\PSoC4/CyLib.c ****         #if (CY_IP_FMLT)
 796:Generated_Source\PSoC4/CyLib.c **** 
 797:Generated_Source\PSoC4/CyLib.c ****             /* FM-Lite Clock Restore */
 798:Generated_Source\PSoC4/CyLib.c ****             regValues[0u] = CY_SYS_CLK_IMO_CONFIG_REG;
 799:Generated_Source\PSoC4/CyLib.c ****             regValues[1u] = CY_SYS_CLK_SELECT_REG;
 800:Generated_Source\PSoC4/CyLib.c ****             regValues[2u] = cyImoFreqMhz2Reg[freq - CY_SYS_CLK_IMO_FREQ_TABLE_OFFSET];
 801:Generated_Source\PSoC4/CyLib.c ****             regValues[3u] = CY_FLASH_CTL_REG;
 802:Generated_Source\PSoC4/CyLib.c **** 
ARM GAS  C:\Users\Jason\AppData\Local\Temp\cc7xyQyF.s 			page 38


 803:Generated_Source\PSoC4/CyLib.c ****             parameters[0u] =
 804:Generated_Source\PSoC4/CyLib.c ****                 (uint32) ((CY_FLASH_KEY_TWO(CY_FLASH_API_OPCODE_CLK_RESTORE) <<  CY_FLASH_PARAM_KEY
 805:Generated_Source\PSoC4/CyLib.c ****                             CY_FLASH_KEY_ONE);
 806:Generated_Source\PSoC4/CyLib.c ****             parameters[1u] = (uint32) &regValues[0u];
 807:Generated_Source\PSoC4/CyLib.c **** 
 808:Generated_Source\PSoC4/CyLib.c ****             CY_FLASH_CPUSS_SYSARG_REG = (uint32) &parameters[0u];
 809:Generated_Source\PSoC4/CyLib.c ****             CY_FLASH_CPUSS_SYSREQ_REG = CY_FLASH_CPUSS_REQ_START | CY_FLASH_API_OPCODE_CLK_RESTORE;
 810:Generated_Source\PSoC4/CyLib.c ****             (void) CY_FLASH_CPUSS_SYSARG_REG;
 811:Generated_Source\PSoC4/CyLib.c **** 
 812:Generated_Source\PSoC4/CyLib.c ****         #else /* (CY_IP_FM) */
 813:Generated_Source\PSoC4/CyLib.c **** 
 814:Generated_Source\PSoC4/CyLib.c ****         if ((freq >= CY_SYS_CLK_IMO_MIN_FREQ_MHZ) && (freq <= CY_SYS_CLK_IMO_MAX_FREQ_MHZ))
 1286              		.loc 1 814 0
 1287 0048 7B68     		ldr	r3, [r7, #4]
 1288 004a 022B     		cmp	r3, #2
 1289 004c 00D8     		bhi	.LCB1004
 1290 004e AFE0     		b	.L87	@long jump
 1291              	.LCB1004:
 1292              		.loc 1 814 0 is_stmt 0 discriminator 1
 1293 0050 7B68     		ldr	r3, [r7, #4]
 1294 0052 302B     		cmp	r3, #48
 1295 0054 00D9     		bls	.LCB1007
 1296 0056 ABE0     		b	.L87	@long jump
 1297              	.LCB1007:
 815:Generated_Source\PSoC4/CyLib.c ****         {
 816:Generated_Source\PSoC4/CyLib.c ****             if(freq <= CY_SFLASH_IMO_MAXF0_REG)
 1298              		.loc 1 816 0 is_stmt 1
 1299 0058 614B     		ldr	r3, .L100
 1300 005a 1B78     		ldrb	r3, [r3]
 1301 005c DBB2     		uxtb	r3, r3
 1302 005e 1A00     		movs	r2, r3
 1303 0060 7B68     		ldr	r3, [r7, #4]
 1304 0062 9A42     		cmp	r2, r3
 1305 0064 0AD3     		bcc	.L88
 817:Generated_Source\PSoC4/CyLib.c ****             {
 818:Generated_Source\PSoC4/CyLib.c ****                 bgTrim4 = CY_SFLASH_IMO_ABS0_REG;
 1306              		.loc 1 818 0
 1307 0066 5F4A     		ldr	r2, .L100+4
 1308 0068 1723     		movs	r3, #23
 1309 006a FB18     		adds	r3, r7, r3
 1310 006c 1278     		ldrb	r2, [r2]
 1311 006e 1A70     		strb	r2, [r3]
 819:Generated_Source\PSoC4/CyLib.c ****                 bgTrim5 = CY_SFLASH_IMO_TMPCO0_REG;
 1312              		.loc 1 819 0
 1313 0070 5D4A     		ldr	r2, .L100+8
 1314 0072 1623     		movs	r3, #22
 1315 0074 FB18     		adds	r3, r7, r3
 1316 0076 1278     		ldrb	r2, [r2]
 1317 0078 1A70     		strb	r2, [r3]
 1318 007a 3FE0     		b	.L89
 1319              	.L88:
 820:Generated_Source\PSoC4/CyLib.c ****             }
 821:Generated_Source\PSoC4/CyLib.c ****             else if(freq <= CY_SFLASH_IMO_MAXF1_REG)
 1320              		.loc 1 821 0
 1321 007c 5B4B     		ldr	r3, .L100+12
 1322 007e 1B78     		ldrb	r3, [r3]
 1323 0080 DBB2     		uxtb	r3, r3
ARM GAS  C:\Users\Jason\AppData\Local\Temp\cc7xyQyF.s 			page 39


 1324 0082 1A00     		movs	r2, r3
 1325 0084 7B68     		ldr	r3, [r7, #4]
 1326 0086 9A42     		cmp	r2, r3
 1327 0088 0AD3     		bcc	.L90
 822:Generated_Source\PSoC4/CyLib.c ****             {
 823:Generated_Source\PSoC4/CyLib.c ****                 bgTrim4 = CY_SFLASH_IMO_ABS1_REG;
 1328              		.loc 1 823 0
 1329 008a 594A     		ldr	r2, .L100+16
 1330 008c 1723     		movs	r3, #23
 1331 008e FB18     		adds	r3, r7, r3
 1332 0090 1278     		ldrb	r2, [r2]
 1333 0092 1A70     		strb	r2, [r3]
 824:Generated_Source\PSoC4/CyLib.c ****                 bgTrim5 = CY_SFLASH_IMO_TMPCO1_REG;
 1334              		.loc 1 824 0
 1335 0094 574A     		ldr	r2, .L100+20
 1336 0096 1623     		movs	r3, #22
 1337 0098 FB18     		adds	r3, r7, r3
 1338 009a 1278     		ldrb	r2, [r2]
 1339 009c 1A70     		strb	r2, [r3]
 1340 009e 2DE0     		b	.L89
 1341              	.L90:
 825:Generated_Source\PSoC4/CyLib.c ****             }
 826:Generated_Source\PSoC4/CyLib.c ****             else if(freq <= CY_SFLASH_IMO_MAXF2_REG)
 1342              		.loc 1 826 0
 1343 00a0 554B     		ldr	r3, .L100+24
 1344 00a2 1B78     		ldrb	r3, [r3]
 1345 00a4 DBB2     		uxtb	r3, r3
 1346 00a6 1A00     		movs	r2, r3
 1347 00a8 7B68     		ldr	r3, [r7, #4]
 1348 00aa 9A42     		cmp	r2, r3
 1349 00ac 0AD3     		bcc	.L91
 827:Generated_Source\PSoC4/CyLib.c ****             {
 828:Generated_Source\PSoC4/CyLib.c ****                 bgTrim4 = CY_SFLASH_IMO_ABS2_REG;
 1350              		.loc 1 828 0
 1351 00ae 534A     		ldr	r2, .L100+28
 1352 00b0 1723     		movs	r3, #23
 1353 00b2 FB18     		adds	r3, r7, r3
 1354 00b4 1278     		ldrb	r2, [r2]
 1355 00b6 1A70     		strb	r2, [r3]
 829:Generated_Source\PSoC4/CyLib.c ****                 bgTrim5 = CY_SFLASH_IMO_TMPCO2_REG;
 1356              		.loc 1 829 0
 1357 00b8 514A     		ldr	r2, .L100+32
 1358 00ba 1623     		movs	r3, #22
 1359 00bc FB18     		adds	r3, r7, r3
 1360 00be 1278     		ldrb	r2, [r2]
 1361 00c0 1A70     		strb	r2, [r3]
 1362 00c2 1BE0     		b	.L89
 1363              	.L91:
 830:Generated_Source\PSoC4/CyLib.c ****             }
 831:Generated_Source\PSoC4/CyLib.c ****             else if(freq <= CY_SFLASH_IMO_MAXF3_REG)
 1364              		.loc 1 831 0
 1365 00c4 4F4B     		ldr	r3, .L100+36
 1366 00c6 1B78     		ldrb	r3, [r3]
 1367 00c8 DBB2     		uxtb	r3, r3
 1368 00ca 1A00     		movs	r2, r3
 1369 00cc 7B68     		ldr	r3, [r7, #4]
 1370 00ce 9A42     		cmp	r2, r3
ARM GAS  C:\Users\Jason\AppData\Local\Temp\cc7xyQyF.s 			page 40


 1371 00d0 0AD3     		bcc	.L92
 832:Generated_Source\PSoC4/CyLib.c ****             {
 833:Generated_Source\PSoC4/CyLib.c ****                 bgTrim4 = CY_SFLASH_IMO_ABS3_REG;
 1372              		.loc 1 833 0
 1373 00d2 4D4A     		ldr	r2, .L100+40
 1374 00d4 1723     		movs	r3, #23
 1375 00d6 FB18     		adds	r3, r7, r3
 1376 00d8 1278     		ldrb	r2, [r2]
 1377 00da 1A70     		strb	r2, [r3]
 834:Generated_Source\PSoC4/CyLib.c ****                 bgTrim5 = CY_SFLASH_IMO_TMPCO3_REG;
 1378              		.loc 1 834 0
 1379 00dc 4B4A     		ldr	r2, .L100+44
 1380 00de 1623     		movs	r3, #22
 1381 00e0 FB18     		adds	r3, r7, r3
 1382 00e2 1278     		ldrb	r2, [r2]
 1383 00e4 1A70     		strb	r2, [r3]
 1384 00e6 09E0     		b	.L89
 1385              	.L92:
 835:Generated_Source\PSoC4/CyLib.c ****             }
 836:Generated_Source\PSoC4/CyLib.c ****             else
 837:Generated_Source\PSoC4/CyLib.c ****             {
 838:Generated_Source\PSoC4/CyLib.c ****                 bgTrim4 = CY_SFLASH_IMO_ABS4_REG;
 1386              		.loc 1 838 0
 1387 00e8 494A     		ldr	r2, .L100+48
 1388 00ea 1723     		movs	r3, #23
 1389 00ec FB18     		adds	r3, r7, r3
 1390 00ee 1278     		ldrb	r2, [r2]
 1391 00f0 1A70     		strb	r2, [r3]
 839:Generated_Source\PSoC4/CyLib.c ****                 bgTrim5 = CY_SFLASH_IMO_TMPCO4_REG;
 1392              		.loc 1 839 0
 1393 00f2 484A     		ldr	r2, .L100+52
 1394 00f4 1623     		movs	r3, #22
 1395 00f6 FB18     		adds	r3, r7, r3
 1396 00f8 1278     		ldrb	r2, [r2]
 1397 00fa 1A70     		strb	r2, [r3]
 1398              	.L89:
 840:Generated_Source\PSoC4/CyLib.c ****             }
 841:Generated_Source\PSoC4/CyLib.c **** 
 842:Generated_Source\PSoC4/CyLib.c ****             /* Get IMO_TRIM2 value for the new frequency */
 843:Generated_Source\PSoC4/CyLib.c ****             newImoTrim2Value = cyImoFreqMhz2Reg[freq - CY_SYS_CLK_IMO_FREQ_TABLE_OFFSET];
 1399              		.loc 1 843 0
 1400 00fc 7B68     		ldr	r3, [r7, #4]
 1401 00fe DA1E     		subs	r2, r3, #3
 1402 0100 0A23     		movs	r3, #10
 1403 0102 FB18     		adds	r3, r7, r3
 1404 0104 4449     		ldr	r1, .L100+56
 1405 0106 8A5C     		ldrb	r2, [r1, r2]
 1406 0108 1A70     		strb	r2, [r3]
 844:Generated_Source\PSoC4/CyLib.c **** 
 845:Generated_Source\PSoC4/CyLib.c **** 
 846:Generated_Source\PSoC4/CyLib.c ****             /****************************************************************************
 847:Generated_Source\PSoC4/CyLib.c ****             * The IMO can have a different trim per frequency. To avoid possible corner
 848:Generated_Source\PSoC4/CyLib.c ****             * cases where a trim change can exceed the maximum frequency, the trim must
 849:Generated_Source\PSoC4/CyLib.c ****             * be applied at a frequency that is low enough.
 850:Generated_Source\PSoC4/CyLib.c ****             *
 851:Generated_Source\PSoC4/CyLib.c ****             * Comparing IMO_TRIM2 values for the current and new frequencies, since
 852:Generated_Source\PSoC4/CyLib.c ****             * IMO_TRIM2 value as a function of IMO frequency is a strictly increasing
ARM GAS  C:\Users\Jason\AppData\Local\Temp\cc7xyQyF.s 			page 41


 853:Generated_Source\PSoC4/CyLib.c ****             * function and is time-invariant.
 854:Generated_Source\PSoC4/CyLib.c ****             ***************************************************************************/
 855:Generated_Source\PSoC4/CyLib.c ****             if ((newImoTrim2Value >= CY_SYS_CLK_IMO_BOUNDARY_FREQ_TRIM2) && (freq >= CY_SYS_CLK_IMO
 1407              		.loc 1 855 0
 1408 010a 0A23     		movs	r3, #10
 1409 010c FB18     		adds	r3, r7, r3
 1410 010e 1B78     		ldrb	r3, [r3]
 1411 0110 2F2B     		cmp	r3, #47
 1412 0112 0DD9     		bls	.L93
 1413              		.loc 1 855 0 is_stmt 0 discriminator 1
 1414 0114 7B68     		ldr	r3, [r7, #4]
 1415 0116 2A2B     		cmp	r3, #42
 1416 0118 0AD9     		bls	.L93
 856:Generated_Source\PSoC4/CyLib.c ****             {
 857:Generated_Source\PSoC4/CyLib.c ****                 /* Set boundary IMO frequency: safe for IMO above 48 MHZ trimming */
 858:Generated_Source\PSoC4/CyLib.c ****                 CY_SYS_CLK_IMO_TRIM2_REG = (uint32) cyImoFreqMhz2Reg[CY_SYS_CLK_IMO_TEMP_FREQ_MHZ -
 1417              		.loc 1 858 0 is_stmt 1
 1418 011a 404B     		ldr	r3, .L100+60
 1419 011c 1922     		movs	r2, #25
 1420 011e 1A60     		str	r2, [r3]
 859:Generated_Source\PSoC4/CyLib.c ****                                                                      CY_SYS_CLK_IMO_FREQ_TABLE_OFFS
 860:Generated_Source\PSoC4/CyLib.c **** 
 861:Generated_Source\PSoC4/CyLib.c ****                 CyDelayCycles(CY_SYS_CLK_IMO_FREQ_TIMEOUT_CYCLES);
 1421              		.loc 1 861 0
 1422 0120 0520     		movs	r0, #5
 1423 0122 FFF7FEFF 		bl	CyDelayCycles
 862:Generated_Source\PSoC4/CyLib.c **** 
 863:Generated_Source\PSoC4/CyLib.c ****                 currentImoTrim2Value = CY_SYS_CLK_IMO_TEMP_FREQ_TRIM2;
 1424              		.loc 1 863 0
 1425 0126 1523     		movs	r3, #21
 1426 0128 FB18     		adds	r3, r7, r3
 1427 012a 1922     		movs	r2, #25
 1428 012c 1A70     		strb	r2, [r3]
 1429 012e 07E0     		b	.L94
 1430              	.L93:
 864:Generated_Source\PSoC4/CyLib.c ****             }
 865:Generated_Source\PSoC4/CyLib.c ****             else
 866:Generated_Source\PSoC4/CyLib.c ****             {
 867:Generated_Source\PSoC4/CyLib.c ****                 currentImoTrim2Value = (uint8) (CY_SYS_CLK_IMO_TRIM2_REG & CY_SYS_CLK_IMO_FREQ_BITS
 1431              		.loc 1 867 0
 1432 0130 3A4B     		ldr	r3, .L100+60
 1433 0132 1B68     		ldr	r3, [r3]
 1434 0134 DAB2     		uxtb	r2, r3
 1435 0136 1523     		movs	r3, #21
 1436 0138 FB18     		adds	r3, r7, r3
 1437 013a 3F21     		movs	r1, #63
 1438 013c 0A40     		ands	r2, r1
 1439 013e 1A70     		strb	r2, [r3]
 1440              	.L94:
 868:Generated_Source\PSoC4/CyLib.c ****             }
 869:Generated_Source\PSoC4/CyLib.c **** 
 870:Generated_Source\PSoC4/CyLib.c **** 
 871:Generated_Source\PSoC4/CyLib.c ****             /***************************************************************************
 872:Generated_Source\PSoC4/CyLib.c ****             * A trim change needs to be allowed to settle (within 5us) before the Freq
 873:Generated_Source\PSoC4/CyLib.c ****             * can be changed to a new frequency.
 874:Generated_Source\PSoC4/CyLib.c ****             *
 875:Generated_Source\PSoC4/CyLib.c ****             * Comparing IMO_TRIM2 values for the current and new frequencies, since
ARM GAS  C:\Users\Jason\AppData\Local\Temp\cc7xyQyF.s 			page 42


 876:Generated_Source\PSoC4/CyLib.c ****             * IMO_TRIM2 value as a function of IMO frequency is a strictly increasing
 877:Generated_Source\PSoC4/CyLib.c ****             * function and is time-invariant.
 878:Generated_Source\PSoC4/CyLib.c ****             ***************************************************************************/
 879:Generated_Source\PSoC4/CyLib.c ****             if (newImoTrim2Value < currentImoTrim2Value)
 1441              		.loc 1 879 0
 1442 0140 0A23     		movs	r3, #10
 1443 0142 FA18     		adds	r2, r7, r3
 1444 0144 1523     		movs	r3, #21
 1445 0146 FB18     		adds	r3, r7, r3
 1446 0148 1278     		ldrb	r2, [r2]
 1447 014a 1B78     		ldrb	r3, [r3]
 1448 014c 9A42     		cmp	r2, r3
 1449 014e 08D2     		bcs	.L95
 880:Generated_Source\PSoC4/CyLib.c ****             {
 881:Generated_Source\PSoC4/CyLib.c ****                 /* Set new IMO frequency */
 882:Generated_Source\PSoC4/CyLib.c ****                 CY_SYS_CLK_IMO_TRIM2_REG = cyImoFreqMhz2Reg[freq - CY_SYS_CLK_IMO_FREQ_TABLE_OFFSET
 1450              		.loc 1 882 0
 1451 0150 324B     		ldr	r3, .L100+60
 1452 0152 7A68     		ldr	r2, [r7, #4]
 1453 0154 033A     		subs	r2, r2, #3
 1454 0156 3049     		ldr	r1, .L100+56
 1455 0158 8A5C     		ldrb	r2, [r1, r2]
 1456 015a 1A60     		str	r2, [r3]
 883:Generated_Source\PSoC4/CyLib.c ****                 CyDelayCycles(CY_SYS_CLK_IMO_FREQ_TIMEOUT_CYCLES);
 1457              		.loc 1 883 0
 1458 015c 0520     		movs	r0, #5
 1459 015e FFF7FEFF 		bl	CyDelayCycles
 1460              	.L95:
 884:Generated_Source\PSoC4/CyLib.c ****             }
 885:Generated_Source\PSoC4/CyLib.c **** 
 886:Generated_Source\PSoC4/CyLib.c ****             /* Set trims for the new IMO frequency */
 887:Generated_Source\PSoC4/CyLib.c ****             CY_SYS_CLK_IMO_TRIM1_REG = (uint32) CY_SFLASH_IMO_TRIM_REG(freq - CY_SYS_CLK_IMO_FREQ_T
 1461              		.loc 1 887 0
 1462 0162 2F4B     		ldr	r3, .L100+64
 1463 0164 7A68     		ldr	r2, [r7, #4]
 1464 0166 2B49     		ldr	r1, .L100+52
 1465 0168 8C46     		mov	ip, r1
 1466 016a 6244     		add	r2, r2, ip
 1467 016c 1278     		ldrb	r2, [r2]
 1468 016e D2B2     		uxtb	r2, r2
 1469 0170 1A60     		str	r2, [r3]
 888:Generated_Source\PSoC4/CyLib.c ****             CY_PWR_BG_TRIM4_REG  = bgTrim4;
 1470              		.loc 1 888 0
 1471 0172 2C4B     		ldr	r3, .L100+68
 1472 0174 1722     		movs	r2, #23
 1473 0176 BA18     		adds	r2, r7, r2
 1474 0178 1278     		ldrb	r2, [r2]
 1475 017a 1A60     		str	r2, [r3]
 889:Generated_Source\PSoC4/CyLib.c ****             CY_PWR_BG_TRIM5_REG  = bgTrim5;
 1476              		.loc 1 889 0
 1477 017c 2A4B     		ldr	r3, .L100+72
 1478 017e 1622     		movs	r2, #22
 1479 0180 BA18     		adds	r2, r7, r2
 1480 0182 1278     		ldrb	r2, [r2]
 1481 0184 1A60     		str	r2, [r3]
 890:Generated_Source\PSoC4/CyLib.c ****             CyDelayUs(CY_SYS_CLK_IMO_TRIM_TIMEOUT_US);
 1482              		.loc 1 890 0
ARM GAS  C:\Users\Jason\AppData\Local\Temp\cc7xyQyF.s 			page 43


 1483 0186 0520     		movs	r0, #5
 1484 0188 FFF7FEFF 		bl	CyDelayUs
 891:Generated_Source\PSoC4/CyLib.c **** 
 892:Generated_Source\PSoC4/CyLib.c ****             if (newImoTrim2Value > currentImoTrim2Value)
 1485              		.loc 1 892 0
 1486 018c 0A23     		movs	r3, #10
 1487 018e FA18     		adds	r2, r7, r3
 1488 0190 1523     		movs	r3, #21
 1489 0192 FB18     		adds	r3, r7, r3
 1490 0194 1278     		ldrb	r2, [r2]
 1491 0196 1B78     		ldrb	r3, [r3]
 1492 0198 9A42     		cmp	r2, r3
 1493 019a 0CD9     		bls	.L97
 893:Generated_Source\PSoC4/CyLib.c ****             {
 894:Generated_Source\PSoC4/CyLib.c ****                 /* Set new IMO frequency */
 895:Generated_Source\PSoC4/CyLib.c ****                 CY_SYS_CLK_IMO_TRIM2_REG = cyImoFreqMhz2Reg[freq - CY_SYS_CLK_IMO_FREQ_TABLE_OFFSET
 1494              		.loc 1 895 0
 1495 019c 1F4B     		ldr	r3, .L100+60
 1496 019e 7A68     		ldr	r2, [r7, #4]
 1497 01a0 033A     		subs	r2, r2, #3
 1498 01a2 1D49     		ldr	r1, .L100+56
 1499 01a4 8A5C     		ldrb	r2, [r1, r2]
 1500 01a6 1A60     		str	r2, [r3]
 896:Generated_Source\PSoC4/CyLib.c ****                 CyDelayCycles(CY_SYS_CLK_IMO_FREQ_TIMEOUT_CYCLES);
 1501              		.loc 1 896 0
 1502 01a8 0520     		movs	r0, #5
 1503 01aa FFF7FEFF 		bl	CyDelayCycles
 892:Generated_Source\PSoC4/CyLib.c ****             {
 1504              		.loc 1 892 0
 1505 01ae 02E0     		b	.L97
 1506              	.L87:
 897:Generated_Source\PSoC4/CyLib.c ****             }
 898:Generated_Source\PSoC4/CyLib.c ****         }
 899:Generated_Source\PSoC4/CyLib.c ****         else
 900:Generated_Source\PSoC4/CyLib.c ****         {
 901:Generated_Source\PSoC4/CyLib.c ****             /* Halt CPU in debug mode if new frequency is invalid */
 902:Generated_Source\PSoC4/CyLib.c ****             CYASSERT(0u != 0u);
 1507              		.loc 1 902 0 discriminator 1
 1508 01b0 0020     		movs	r0, #0
 1509 01b2 FFF7FEFF 		bl	CyHalt
 1510              	.L97:
 903:Generated_Source\PSoC4/CyLib.c ****         }
 904:Generated_Source\PSoC4/CyLib.c **** 
 905:Generated_Source\PSoC4/CyLib.c ****         #endif /* (CY_IP_FMLT) */
 906:Generated_Source\PSoC4/CyLib.c **** 
 907:Generated_Source\PSoC4/CyLib.c ****         #if (CY_IP_IMO_TRIMMABLE_BY_WCO)
 908:Generated_Source\PSoC4/CyLib.c ****             if (1u == wcoLock)
 1511              		.loc 1 908 0
 1512 01b6 3B69     		ldr	r3, [r7, #16]
 1513 01b8 012B     		cmp	r3, #1
 1514 01ba 01D1     		bne	.L98
 909:Generated_Source\PSoC4/CyLib.c ****             {
 910:Generated_Source\PSoC4/CyLib.c ****                 CySysClkImoEnableWcoLock();
 1515              		.loc 1 910 0
 1516 01bc FFF7FEFF 		bl	CySysClkImoEnableWcoLock
 1517              	.L98:
 911:Generated_Source\PSoC4/CyLib.c ****             }
ARM GAS  C:\Users\Jason\AppData\Local\Temp\cc7xyQyF.s 			page 44


 912:Generated_Source\PSoC4/CyLib.c ****         #endif  /* (CY_IP_IMO_TRIMMABLE_BY_WCO) */
 913:Generated_Source\PSoC4/CyLib.c **** 
 914:Generated_Source\PSoC4/CyLib.c ****         #if (CY_IP_IMO_TRIMMABLE_BY_USB)
 915:Generated_Source\PSoC4/CyLib.c ****             if (1u == usbLock)
 1518              		.loc 1 915 0
 1519 01c0 FB68     		ldr	r3, [r7, #12]
 1520 01c2 012B     		cmp	r3, #1
 1521 01c4 01D1     		bne	.L99
 916:Generated_Source\PSoC4/CyLib.c ****             {
 917:Generated_Source\PSoC4/CyLib.c ****                 CySysClkImoEnableUsbLock();
 1522              		.loc 1 917 0
 1523 01c6 FFF7FEFF 		bl	CySysClkImoEnableUsbLock
 1524              	.L99:
 918:Generated_Source\PSoC4/CyLib.c ****             }
 919:Generated_Source\PSoC4/CyLib.c ****         #endif  /* (CY_IP_IMO_TRIMMABLE_BY_USB) */
 920:Generated_Source\PSoC4/CyLib.c **** 
 921:Generated_Source\PSoC4/CyLib.c ****         CyExitCriticalSection(interruptState);
 1525              		.loc 1 921 0
 1526 01ca 0B23     		movs	r3, #11
 1527 01cc FB18     		adds	r3, r7, r3
 1528 01ce 1B78     		ldrb	r3, [r3]
 1529 01d0 1800     		movs	r0, r3
 1530 01d2 FFF7FEFF 		bl	CyExitCriticalSection
 922:Generated_Source\PSoC4/CyLib.c ****     }
 1531              		.loc 1 922 0
 1532 01d6 C046     		nop
 1533 01d8 BD46     		mov	sp, r7
 1534 01da 07B0     		add	sp, sp, #28
 1535              		@ sp needed
 1536 01dc 90BD     		pop	{r4, r7, pc}
 1537              	.L101:
 1538 01de C046     		.align	2
 1539              	.L100:
 1540 01e0 40F3FF0F 		.word	268432192
 1541 01e4 41F3FF0F 		.word	268432193
 1542 01e8 42F3FF0F 		.word	268432194
 1543 01ec 43F3FF0F 		.word	268432195
 1544 01f0 44F3FF0F 		.word	268432196
 1545 01f4 45F3FF0F 		.word	268432197
 1546 01f8 46F3FF0F 		.word	268432198
 1547 01fc 47F3FF0F 		.word	268432199
 1548 0200 48F3FF0F 		.word	268432200
 1549 0204 49F3FF0F 		.word	268432201
 1550 0208 4AF3FF0F 		.word	268432202
 1551 020c 4BF3FF0F 		.word	268432203
 1552 0210 4CF3FF0F 		.word	268432204
 1553 0214 4DF3FF0F 		.word	268432205
 1554 0218 00000000 		.word	cyImoFreqMhz2Reg
 1555 021c 2CFF0B40 		.word	1074528044
 1556 0220 28FF0B40 		.word	1074528040
 1557 0224 1CFF0B40 		.word	1074528028
 1558 0228 20FF0B40 		.word	1074528032
 1559              		.cfi_endproc
 1560              	.LFE13:
 1561              		.size	CySysClkWriteImoFreq, .-CySysClkWriteImoFreq
 1562              		.section	.text.CySysClkEcoStart,"ax",%progbits
 1563              		.align	2
ARM GAS  C:\Users\Jason\AppData\Local\Temp\cc7xyQyF.s 			page 45


 1564              		.global	CySysClkEcoStart
 1565              		.code	16
 1566              		.thumb_func
 1567              		.type	CySysClkEcoStart, %function
 1568              	CySysClkEcoStart:
 1569              	.LFB14:
 923:Generated_Source\PSoC4/CyLib.c **** 
 924:Generated_Source\PSoC4/CyLib.c **** #else
 925:Generated_Source\PSoC4/CyLib.c **** 
 926:Generated_Source\PSoC4/CyLib.c ****     void CySysClkWriteImoFreq(uint32 freq)
 927:Generated_Source\PSoC4/CyLib.c ****     {
 928:Generated_Source\PSoC4/CyLib.c ****         uint8  interruptState;
 929:Generated_Source\PSoC4/CyLib.c ****         uint8  imoTrim1Value;
 930:Generated_Source\PSoC4/CyLib.c **** 
 931:Generated_Source\PSoC4/CyLib.c ****         #if (CY_IP_IMO_TRIMMABLE_BY_WCO)
 932:Generated_Source\PSoC4/CyLib.c ****             uint32 wcoLock = 0u;
 933:Generated_Source\PSoC4/CyLib.c ****         #endif  /* (CY_IP_IMO_TRIMMABLE_BY_WCO) */        
 934:Generated_Source\PSoC4/CyLib.c ****         
 935:Generated_Source\PSoC4/CyLib.c ****         #if (CY_IP_IMO_TRIMMABLE_BY_USB)
 936:Generated_Source\PSoC4/CyLib.c ****             uint32 usbLock = 0u;
 937:Generated_Source\PSoC4/CyLib.c ****         #endif  /* (CY_IP_IMO_TRIMMABLE_BY_USB) */
 938:Generated_Source\PSoC4/CyLib.c **** 
 939:Generated_Source\PSoC4/CyLib.c ****         #if (CY_PSOC4_4000)
 940:Generated_Source\PSoC4/CyLib.c ****             if ((freq == 24u) || (freq == 32u) || (freq == 48u))
 941:Generated_Source\PSoC4/CyLib.c ****         #elif (CY_CCG3)
 942:Generated_Source\PSoC4/CyLib.c ****             if ((freq == 24u) || (freq == 36u) || (freq == 48u))
 943:Generated_Source\PSoC4/CyLib.c ****         #else
 944:Generated_Source\PSoC4/CyLib.c ****             if ((freq == 24u) || (freq == 28u) || (freq == 32u) ||
 945:Generated_Source\PSoC4/CyLib.c ****                 (freq == 36u) || (freq == 40u) || (freq == 44u) ||
 946:Generated_Source\PSoC4/CyLib.c ****                 (freq == 48u))
 947:Generated_Source\PSoC4/CyLib.c ****         #endif /* (CY_PSOC4_4000) */
 948:Generated_Source\PSoC4/CyLib.c ****         {
 949:Generated_Source\PSoC4/CyLib.c ****             interruptState = CyEnterCriticalSection();
 950:Generated_Source\PSoC4/CyLib.c **** 
 951:Generated_Source\PSoC4/CyLib.c ****             #if (CY_IP_IMO_TRIMMABLE_BY_WCO)
 952:Generated_Source\PSoC4/CyLib.c ****                 if(0u != CySysClkImoGetWcoLock())
 953:Generated_Source\PSoC4/CyLib.c ****                 {
 954:Generated_Source\PSoC4/CyLib.c ****                     wcoLock = 1u;
 955:Generated_Source\PSoC4/CyLib.c ****                     CySysClkImoDisableWcoLock();
 956:Generated_Source\PSoC4/CyLib.c ****                 }
 957:Generated_Source\PSoC4/CyLib.c ****             #endif  /* (CY_IP_IMO_TRIMMABLE_BY_WCO) */
 958:Generated_Source\PSoC4/CyLib.c **** 
 959:Generated_Source\PSoC4/CyLib.c ****             #if (CY_IP_IMO_TRIMMABLE_BY_USB)
 960:Generated_Source\PSoC4/CyLib.c **** 
 961:Generated_Source\PSoC4/CyLib.c ****                 #if (CYDEV_IMO_TRIMMED_BY_USB == 0u)
 962:Generated_Source\PSoC4/CyLib.c ****                     if(0u != CySysClkImoGetUsbLock())
 963:Generated_Source\PSoC4/CyLib.c ****                     {
 964:Generated_Source\PSoC4/CyLib.c ****                 #endif  /* (CYDEV_IMO_TRIMMED_BY_USB == 0u) */
 965:Generated_Source\PSoC4/CyLib.c **** 
 966:Generated_Source\PSoC4/CyLib.c ****                     if (48u == freq)
 967:Generated_Source\PSoC4/CyLib.c ****                     {
 968:Generated_Source\PSoC4/CyLib.c ****                         usbLock = 1u;
 969:Generated_Source\PSoC4/CyLib.c ****                         CySysClkImoDisableUsbLock();
 970:Generated_Source\PSoC4/CyLib.c ****                     }
 971:Generated_Source\PSoC4/CyLib.c **** 
 972:Generated_Source\PSoC4/CyLib.c ****                 #if (CYDEV_IMO_TRIMMED_BY_USB == 0u)
 973:Generated_Source\PSoC4/CyLib.c ****                     }
ARM GAS  C:\Users\Jason\AppData\Local\Temp\cc7xyQyF.s 			page 46


 974:Generated_Source\PSoC4/CyLib.c ****                 #endif  /* (CYDEV_IMO_TRIMMED_BY_USB == 0u) */
 975:Generated_Source\PSoC4/CyLib.c **** 
 976:Generated_Source\PSoC4/CyLib.c ****             #endif  /* (CYDEV_IMO_TRIMMED_BY_USB == 0u) */
 977:Generated_Source\PSoC4/CyLib.c **** 
 978:Generated_Source\PSoC4/CyLib.c **** 
 979:Generated_Source\PSoC4/CyLib.c ****             /* Set IMO to 24 MHz - CLK_IMO_SELECT.FREQ = 0 */
 980:Generated_Source\PSoC4/CyLib.c ****             CY_SYS_CLK_IMO_SELECT_REG &= ((uint32) ~CY_SYS_CLK_IMO_SELECT_FREQ_MASK);
 981:Generated_Source\PSoC4/CyLib.c **** 
 982:Generated_Source\PSoC4/CyLib.c **** 
 983:Generated_Source\PSoC4/CyLib.c ****             /* Apply coarse trim */
 984:Generated_Source\PSoC4/CyLib.c ****             #if (CY_IP_IMO_TRIMMABLE_BY_USB)
 985:Generated_Source\PSoC4/CyLib.c ****                 if ((1u == usbLock) && (48u == freq))
 986:Generated_Source\PSoC4/CyLib.c ****                 {
 987:Generated_Source\PSoC4/CyLib.c ****                     imoTrim1Value = CY_SFLASH_IMO_TRIM_USBMODE_48_REG;
 988:Generated_Source\PSoC4/CyLib.c ****                 }
 989:Generated_Source\PSoC4/CyLib.c ****                 else if ((1u == usbLock) && (24u == freq))
 990:Generated_Source\PSoC4/CyLib.c ****                 {
 991:Generated_Source\PSoC4/CyLib.c ****                     imoTrim1Value = CY_SFLASH_IMO_TRIM_USBMODE_24_REG;
 992:Generated_Source\PSoC4/CyLib.c ****                 }
 993:Generated_Source\PSoC4/CyLib.c ****                 else
 994:Generated_Source\PSoC4/CyLib.c ****                 {
 995:Generated_Source\PSoC4/CyLib.c ****                     imoTrim1Value = (uint8) CY_SFLASH_IMO_TRIM_REG(freq - CY_SYS_CLK_IMO_MIN_FREQ_M
 996:Generated_Source\PSoC4/CyLib.c ****                 }
 997:Generated_Source\PSoC4/CyLib.c ****             #else
 998:Generated_Source\PSoC4/CyLib.c ****                 imoTrim1Value = (uint8) CY_SFLASH_IMO_TRIM_REG(freq - CY_SYS_CLK_IMO_MIN_FREQ_MHZ);
 999:Generated_Source\PSoC4/CyLib.c ****             #endif  /* (CY_IP_IMO_TRIMMABLE_BY_USB) */
1000:Generated_Source\PSoC4/CyLib.c ****             CY_SYS_CLK_IMO_TRIM1_REG = (uint32) imoTrim1Value;
1001:Generated_Source\PSoC4/CyLib.c **** 
1002:Generated_Source\PSoC4/CyLib.c ****             /* Zero out fine trim */
1003:Generated_Source\PSoC4/CyLib.c ****             CY_SYS_CLK_IMO_TRIM2_REG = CY_SYS_CLK_IMO_TRIM2_REG & ((uint32) ~CY_SYS_CLK_IMO_TRIM2_F
1004:Generated_Source\PSoC4/CyLib.c **** 
1005:Generated_Source\PSoC4/CyLib.c ****             /* Apply TC trim */
1006:Generated_Source\PSoC4/CyLib.c ****             CY_SYS_CLK_IMO_TRIM3_REG = (CY_SYS_CLK_IMO_TRIM3_REG & ((uint32) ~CY_SYS_CLK_IMO_TRIM3_
1007:Generated_Source\PSoC4/CyLib.c ****                 (CY_SFLASH_IMO_TCTRIM_REG(freq - CY_SYS_CLK_IMO_MIN_FREQ_MHZ) & CY_SYS_CLK_IMO_TRIM
1008:Generated_Source\PSoC4/CyLib.c **** 
1009:Generated_Source\PSoC4/CyLib.c ****             CyDelayCycles(CY_SYS_CLK_IMO_TRIM_DELAY_CYCLES);
1010:Generated_Source\PSoC4/CyLib.c **** 
1011:Generated_Source\PSoC4/CyLib.c ****             if (freq > CY_SYS_CLK_IMO_MIN_FREQ_MHZ)
1012:Generated_Source\PSoC4/CyLib.c ****             {
1013:Generated_Source\PSoC4/CyLib.c ****                 /* Select nearby intermediate frequency */
1014:Generated_Source\PSoC4/CyLib.c ****                 CY_SYS_CLK_IMO_SELECT_REG = (CY_SYS_CLK_IMO_SELECT_REG & ((uint32) ~CY_SYS_CLK_IMO_
1015:Generated_Source\PSoC4/CyLib.c ****                     (((freq - 4u - CY_SYS_CLK_IMO_MIN_FREQ_MHZ) >> 2u) & CY_SYS_CLK_IMO_SELECT_FREQ
1016:Generated_Source\PSoC4/CyLib.c **** 
1017:Generated_Source\PSoC4/CyLib.c ****                 CyDelayCycles(CY_SYS_CLK_IMO_TRIM_DELAY_CYCLES);
1018:Generated_Source\PSoC4/CyLib.c **** 
1019:Generated_Source\PSoC4/CyLib.c ****                 /* Make small step to final frequency */
1020:Generated_Source\PSoC4/CyLib.c ****                 /* Select nearby intermediate frequency */
1021:Generated_Source\PSoC4/CyLib.c ****                 CY_SYS_CLK_IMO_SELECT_REG = (CY_SYS_CLK_IMO_SELECT_REG & ((uint32) ~CY_SYS_CLK_IMO_
1022:Generated_Source\PSoC4/CyLib.c ****                     (((freq - CY_SYS_CLK_IMO_MIN_FREQ_MHZ) >> 2u) & CY_SYS_CLK_IMO_SELECT_FREQ_MASK
1023:Generated_Source\PSoC4/CyLib.c ****             }
1024:Generated_Source\PSoC4/CyLib.c **** 
1025:Generated_Source\PSoC4/CyLib.c ****             #if (CY_IP_IMO_TRIMMABLE_BY_WCO)
1026:Generated_Source\PSoC4/CyLib.c ****                 if (1u == wcoLock)
1027:Generated_Source\PSoC4/CyLib.c ****                 {
1028:Generated_Source\PSoC4/CyLib.c ****                     CySysClkImoEnableWcoLock();
1029:Generated_Source\PSoC4/CyLib.c ****                 }
1030:Generated_Source\PSoC4/CyLib.c ****             #endif  /* (CY_IP_IMO_TRIMMABLE_BY_WCO) */
ARM GAS  C:\Users\Jason\AppData\Local\Temp\cc7xyQyF.s 			page 47


1031:Generated_Source\PSoC4/CyLib.c ****         
1032:Generated_Source\PSoC4/CyLib.c ****         
1033:Generated_Source\PSoC4/CyLib.c ****             #if (CY_IP_IMO_TRIMMABLE_BY_USB)
1034:Generated_Source\PSoC4/CyLib.c ****                 if (1u == usbLock)
1035:Generated_Source\PSoC4/CyLib.c ****                 {
1036:Generated_Source\PSoC4/CyLib.c ****                     CySysClkImoEnableUsbLock();
1037:Generated_Source\PSoC4/CyLib.c ****                 }
1038:Generated_Source\PSoC4/CyLib.c ****             #endif  /* (CY_IP_IMO_TRIMMABLE_BY_USB) */
1039:Generated_Source\PSoC4/CyLib.c **** 
1040:Generated_Source\PSoC4/CyLib.c ****             CyExitCriticalSection(interruptState);
1041:Generated_Source\PSoC4/CyLib.c ****         }
1042:Generated_Source\PSoC4/CyLib.c ****         else
1043:Generated_Source\PSoC4/CyLib.c ****         {
1044:Generated_Source\PSoC4/CyLib.c ****             /* Halt CPU in debug mode if new frequency is invalid */
1045:Generated_Source\PSoC4/CyLib.c ****             CYASSERT(0u != 0u);
1046:Generated_Source\PSoC4/CyLib.c ****         }
1047:Generated_Source\PSoC4/CyLib.c ****     }
1048:Generated_Source\PSoC4/CyLib.c **** 
1049:Generated_Source\PSoC4/CyLib.c **** #endif /* (CY_IP_SRSSV2) */
1050:Generated_Source\PSoC4/CyLib.c **** 
1051:Generated_Source\PSoC4/CyLib.c **** 
1052:Generated_Source\PSoC4/CyLib.c **** #if(CY_IP_SRSSLT)
1053:Generated_Source\PSoC4/CyLib.c ****     /*******************************************************************************
1054:Generated_Source\PSoC4/CyLib.c ****     * Function Name: CySysClkWriteHfclkDiv
1055:Generated_Source\PSoC4/CyLib.c ****     ****************************************************************************//**
1056:Generated_Source\PSoC4/CyLib.c ****     *
1057:Generated_Source\PSoC4/CyLib.c ****     * Selects the pre-scaler divider value for HFCLK from IMO.
1058:Generated_Source\PSoC4/CyLib.c ****     *
1059:Generated_Source\PSoC4/CyLib.c ****     * The HFCLK predivider allows the device to divide the HFCLK selection mux
1060:Generated_Source\PSoC4/CyLib.c ****     * input before use as HFCLK. The predivider is capable of dividing the HFCLK by
1061:Generated_Source\PSoC4/CyLib.c ****     * powers of 2 between 1 and 8.
1062:Generated_Source\PSoC4/CyLib.c ****     *
1063:Generated_Source\PSoC4/CyLib.c ****     * PSoC 4000: The SYSCLK has the speed of 16 MHz, so HFCLK and SYSCLK dividers
1064:Generated_Source\PSoC4/CyLib.c ****     * should be selected in a way, not to exceed 16 MHz for SYSCLK.
1065:Generated_Source\PSoC4/CyLib.c ****     *
1066:Generated_Source\PSoC4/CyLib.c ****     * If the SYSCLK clock frequency increases during the device operation, call
1067:Generated_Source\PSoC4/CyLib.c ****     * \ref CySysFlashSetWaitCycles() with the appropriate parameter to adjust the
1068:Generated_Source\PSoC4/CyLib.c ****     * number of clock cycles the cache will wait before sampling data comes back
1069:Generated_Source\PSoC4/CyLib.c ****     * from Flash. If the SYSCLK clock frequency decreases, you can call
1070:Generated_Source\PSoC4/CyLib.c ****     * \ref CySysFlashSetWaitCycles() to improve the CPU performance. See
1071:Generated_Source\PSoC4/CyLib.c ****     * \ref CySysFlashSetWaitCycles() description for more information.
1072:Generated_Source\PSoC4/CyLib.c ****     *
1073:Generated_Source\PSoC4/CyLib.c ****     * \param \ref CY_SYS_CLK_HFCLK_DIV_NODIV    Transparent mode (w/o dividing)
1074:Generated_Source\PSoC4/CyLib.c ****     * \param \ref CY_SYS_CLK_HFCLK_DIV_2        Divide selected clock source by 2
1075:Generated_Source\PSoC4/CyLib.c ****     * \param \ref CY_SYS_CLK_HFCLK_DIV_4        Divide selected clock source by 4
1076:Generated_Source\PSoC4/CyLib.c ****     * \param \ref CY_SYS_CLK_HFCLK_DIV_8        Divide selected clock source by 8
1077:Generated_Source\PSoC4/CyLib.c ****     *
1078:Generated_Source\PSoC4/CyLib.c ****     *******************************************************************************/
1079:Generated_Source\PSoC4/CyLib.c ****     void CySysClkWriteHfclkDiv(uint32 divider)
1080:Generated_Source\PSoC4/CyLib.c ****     {
1081:Generated_Source\PSoC4/CyLib.c ****         uint8  interruptState;
1082:Generated_Source\PSoC4/CyLib.c **** 
1083:Generated_Source\PSoC4/CyLib.c ****         interruptState = CyEnterCriticalSection();
1084:Generated_Source\PSoC4/CyLib.c **** 
1085:Generated_Source\PSoC4/CyLib.c ****         CY_SYS_CLK_SELECT_REG = ((CY_SYS_CLK_SELECT_REG & ((uint32) (~(CY_SYS_CLK_SELECT_HFCLK_DIV_
1086:Generated_Source\PSoC4/CyLib.c ****                                         CY_SYS_CLK_SELECT_HFCLK_DIV_SHIFT)))) |
1087:Generated_Source\PSoC4/CyLib.c ****                     ((uint32)((divider & CY_SYS_CLK_SELECT_HFCLK_DIV_MASK) << CY_SYS_CLK_SELECT_HFC
ARM GAS  C:\Users\Jason\AppData\Local\Temp\cc7xyQyF.s 			page 48


1088:Generated_Source\PSoC4/CyLib.c **** 
1089:Generated_Source\PSoC4/CyLib.c ****         CyExitCriticalSection(interruptState);
1090:Generated_Source\PSoC4/CyLib.c ****     }
1091:Generated_Source\PSoC4/CyLib.c **** #endif /* (CY_IP_SRSSLT) */
1092:Generated_Source\PSoC4/CyLib.c **** 
1093:Generated_Source\PSoC4/CyLib.c **** 
1094:Generated_Source\PSoC4/CyLib.c **** #if (CY_IP_ECO)
1095:Generated_Source\PSoC4/CyLib.c **** 
1096:Generated_Source\PSoC4/CyLib.c ****     /*******************************************************************************
1097:Generated_Source\PSoC4/CyLib.c ****     * Function Name: CySysClkEcoStart
1098:Generated_Source\PSoC4/CyLib.c ****     ****************************************************************************//**
1099:Generated_Source\PSoC4/CyLib.c ****     *
1100:Generated_Source\PSoC4/CyLib.c ****     * Starts the External Crystal Oscillator (ECO). Refer to the device datasheet
1101:Generated_Source\PSoC4/CyLib.c ****     * for the ECO startup time.
1102:Generated_Source\PSoC4/CyLib.c ****     *
1103:Generated_Source\PSoC4/CyLib.c ****     * The timeout interval is measured based on the system frequency defined by
1104:Generated_Source\PSoC4/CyLib.c ****     * PSoC Creator at build time. If System clock frequency is changed in
1105:Generated_Source\PSoC4/CyLib.c ****     * runtime, the \ref CyDelayFreq() with the appropriate parameter should be
1106:Generated_Source\PSoC4/CyLib.c ****     * called.
1107:Generated_Source\PSoC4/CyLib.c ****     *
1108:Generated_Source\PSoC4/CyLib.c ****     * PSoC 4100 BLE / PSoC 4200 BLE: The WCO must be enabled prior to enabling ECO.
1109:Generated_Source\PSoC4/CyLib.c ****     *
1110:Generated_Source\PSoC4/CyLib.c ****     * \param timeoutUs Timeout in microseconds.
1111:Generated_Source\PSoC4/CyLib.c ****     *
1112:Generated_Source\PSoC4/CyLib.c ****     * If zero is specified, the function does not wait for timeout and returns
1113:Generated_Source\PSoC4/CyLib.c ****     * CYRET_SUCCESS. If non-zero is specified, the function waits for the timeout.
1114:Generated_Source\PSoC4/CyLib.c ****     *
1115:Generated_Source\PSoC4/CyLib.c ****     * \return \ref CYRET_SUCCESS Completed successfully. The ECO is oscillating and
1116:Generated_Source\PSoC4/CyLib.c ****     * amplitude reached 60% and it does not mean 24 MHz crystal is within 50 ppm.
1117:Generated_Source\PSoC4/CyLib.c ****     *
1118:Generated_Source\PSoC4/CyLib.c ****     * \return \ref CYRET_TIMEOUT Timeout occurred. If the crystal is not oscillating
1119:Generated_Source\PSoC4/CyLib.c ****     * or amplitude didn't reach 60% after specified amount of time, CYRET_TIMEOUT
1120:Generated_Source\PSoC4/CyLib.c ****     * is returned.
1121:Generated_Source\PSoC4/CyLib.c ****     *
1122:Generated_Source\PSoC4/CyLib.c ****     * \return \ref CYRET_BAD_PARAM One or more invalid parameters.
1123:Generated_Source\PSoC4/CyLib.c ****     *
1124:Generated_Source\PSoC4/CyLib.c ****     *******************************************************************************/
1125:Generated_Source\PSoC4/CyLib.c ****     cystatus CySysClkEcoStart(uint32 timeoutUs)
1126:Generated_Source\PSoC4/CyLib.c ****     {
 1570              		.loc 1 1126 0
 1571              		.cfi_startproc
 1572              		@ args = 0, pretend = 0, frame = 16
 1573              		@ frame_needed = 1, uses_anonymous_args = 0
 1574 0000 80B5     		push	{r7, lr}
 1575              		.cfi_def_cfa_offset 8
 1576              		.cfi_offset 7, -8
 1577              		.cfi_offset 14, -4
 1578 0002 84B0     		sub	sp, sp, #16
 1579              		.cfi_def_cfa_offset 24
 1580 0004 00AF     		add	r7, sp, #0
 1581              		.cfi_def_cfa_register 7
 1582 0006 7860     		str	r0, [r7, #4]
1127:Generated_Source\PSoC4/CyLib.c ****         cystatus returnStatus = CYRET_SUCCESS;
 1583              		.loc 1 1127 0
 1584 0008 0023     		movs	r3, #0
 1585 000a FB60     		str	r3, [r7, #12]
1128:Generated_Source\PSoC4/CyLib.c **** 
ARM GAS  C:\Users\Jason\AppData\Local\Temp\cc7xyQyF.s 			page 49


1129:Generated_Source\PSoC4/CyLib.c ****         #if (CY_IP_ECO_BLESS)
1130:Generated_Source\PSoC4/CyLib.c ****             /* Enable the RF oscillator band gap */
1131:Generated_Source\PSoC4/CyLib.c ****             CY_SYS_XTAL_BLESS_RF_CONFIG_REG |= CY_SYS_XTAL_BLESS_RF_CONFIG_RF_ENABLE;
1132:Generated_Source\PSoC4/CyLib.c **** 
1133:Generated_Source\PSoC4/CyLib.c ****             /* Update trimming register */
1134:Generated_Source\PSoC4/CyLib.c ****             CY_SYS_XTAL_BLERD_BB_XO_REG = CY_SYS_XTAL_BLERD_BB_XO_TRIM;
1135:Generated_Source\PSoC4/CyLib.c **** 
1136:Generated_Source\PSoC4/CyLib.c ****             /* Enable the Crystal */
1137:Generated_Source\PSoC4/CyLib.c ****             CY_SYS_XTAL_BLERD_DBUS_REG |= CY_SYS_XTAL_BLERD_DBUS_XTAL_ENABLE;
1138:Generated_Source\PSoC4/CyLib.c ****         
1139:Generated_Source\PSoC4/CyLib.c ****         #elif (CY_IP_ECO_BLESSV3)
1140:Generated_Source\PSoC4/CyLib.c ****             uint32 regConfig;
1141:Generated_Source\PSoC4/CyLib.c ****             uint32 intrRegMaskStore = 0u;
1142:Generated_Source\PSoC4/CyLib.c ****             
1143:Generated_Source\PSoC4/CyLib.c ****             if (0u != (CY_SYS_BLESS_MT_CFG_REG & (CY_SYS_BLESS_MT_CFG_ENABLE_BLERD <<  CYFLD_BLE_BL
1144:Generated_Source\PSoC4/CyLib.c ****             {
1145:Generated_Source\PSoC4/CyLib.c ****                 CY_SYS_BLESS_MT_CFG_REG |= (CY_SYS_BLESS_MT_CFG_DPSLP_ECO_ON  <<  CYFLD_BLE_BLESS_D
1146:Generated_Source\PSoC4/CyLib.c ****             }
1147:Generated_Source\PSoC4/CyLib.c ****             else
1148:Generated_Source\PSoC4/CyLib.c ****             {
1149:Generated_Source\PSoC4/CyLib.c ****                 /* Init BLE core */
1150:Generated_Source\PSoC4/CyLib.c ****                 CY_SYS_BLESS_MT_DELAY_CFG_REG = CY_SYS_BLESS_MT_DELAY_CFG_INIT;
1151:Generated_Source\PSoC4/CyLib.c ****                 CY_SYS_BLESS_MT_DELAY_CFG2_REG = CY_SYS_BLESS_MT_DELAY_CFG2_INIT;
1152:Generated_Source\PSoC4/CyLib.c ****                 CY_SYS_BLESS_MT_DELAY_CFG3_REG = CY_SYS_BLESS_MT_DELAY_CFG3_INIT;
1153:Generated_Source\PSoC4/CyLib.c ****             
1154:Generated_Source\PSoC4/CyLib.c ****                 /* RCB init */
1155:Generated_Source\PSoC4/CyLib.c ****                 regConfig = CY_SYS_RCB_CTRL_REG;
1156:Generated_Source\PSoC4/CyLib.c ****                 regConfig &= CY_SYS_RCB_CTRL_CLEAR;
1157:Generated_Source\PSoC4/CyLib.c ****                 regConfig |= CY_SYS_RCB_CTRL_INIT;
1158:Generated_Source\PSoC4/CyLib.c ****                 CY_SYS_RCB_CTRL_REG = regConfig;
1159:Generated_Source\PSoC4/CyLib.c ****                 
1160:Generated_Source\PSoC4/CyLib.c ****                 intrRegMaskStore = CY_SYS_BLESS_INTR_MASK_REG;
1161:Generated_Source\PSoC4/CyLib.c ****                 if(0u != (CY_SYS_BLESS_BLERD_ACTIVE_INTR_MASK & intrRegMaskStore))
1162:Generated_Source\PSoC4/CyLib.c ****                 {
1163:Generated_Source\PSoC4/CyLib.c ****                     CY_SYS_BLESS_INTR_MASK_REG &= ~CY_SYS_BLESS_BLERD_ACTIVE_INTR_MASK;
1164:Generated_Source\PSoC4/CyLib.c ****                 }
1165:Generated_Source\PSoC4/CyLib.c ****                 
1166:Generated_Source\PSoC4/CyLib.c ****                 /* Enable BLE core */
1167:Generated_Source\PSoC4/CyLib.c ****                 regConfig = CY_SYS_BLESS_MT_CFG_REG;
1168:Generated_Source\PSoC4/CyLib.c ****                 regConfig &= CY_SYS_BLESS_MT_CFG_CLEAR;
1169:Generated_Source\PSoC4/CyLib.c ****                 regConfig |= CY_SYS_BLESS_MT_CFG_INIT;
1170:Generated_Source\PSoC4/CyLib.c ****                 CY_SYS_BLESS_MT_CFG_REG = regConfig;
1171:Generated_Source\PSoC4/CyLib.c **** 
1172:Generated_Source\PSoC4/CyLib.c ****                 while(0u == ((CY_SYS_BLESS_BLERD_ACTIVE_INTR_STAT & CY_SYS_BLESS_INTR_STAT_REG)))
1173:Generated_Source\PSoC4/CyLib.c ****                 {
1174:Generated_Source\PSoC4/CyLib.c ****                     /* Wait until BLERD55 moves to active state */
1175:Generated_Source\PSoC4/CyLib.c ****                 }
1176:Generated_Source\PSoC4/CyLib.c **** 
1177:Generated_Source\PSoC4/CyLib.c ****                 if(0u != (CY_SYS_BLESS_BLERD_ACTIVE_INTR_MASK & intrRegMaskStore))
1178:Generated_Source\PSoC4/CyLib.c ****                 {
1179:Generated_Source\PSoC4/CyLib.c ****                     CY_SYS_BLESS_INTR_MASK_REG |= CY_SYS_BLESS_BLERD_ACTIVE_INTR_MASK;
1180:Generated_Source\PSoC4/CyLib.c ****                 }
1181:Generated_Source\PSoC4/CyLib.c ****                 
1182:Generated_Source\PSoC4/CyLib.c ****                 /* Send write commands to RBUS */
1183:Generated_Source\PSoC4/CyLib.c ****                 CY_SYS_RCB_TX_FIFO_WR_REG = CY_SYS_RCB_RBUS_FREQ_NRST_SET;
1184:Generated_Source\PSoC4/CyLib.c ****                 CY_SYS_RCB_TX_FIFO_WR_REG = CY_SYS_RCB_RBUS_DIG_CLK_SET;
1185:Generated_Source\PSoC4/CyLib.c ****                 
ARM GAS  C:\Users\Jason\AppData\Local\Temp\cc7xyQyF.s 			page 50


1186:Generated_Source\PSoC4/CyLib.c ****                 #if (CY_SYS_BLE_CLK_ECO_FREQ_32MHZ == CYDEV_ECO_CLK_MHZ)
1187:Generated_Source\PSoC4/CyLib.c ****                     CY_SYS_RCB_TX_FIFO_WR_REG = CY_SYS_RCB_RBUS_FREQ_XTAL_DIV_SET;
1188:Generated_Source\PSoC4/CyLib.c ****                     CY_SYS_RCB_TX_FIFO_WR_REG = (CY_SYS_RCB_RBUS_RF_DCXO_CFG_SET | CY_SYS_RCB_RBUS_
1189:Generated_Source\PSoC4/CyLib.c ****                 #else
1190:Generated_Source\PSoC4/CyLib.c ****                     CY_SYS_RCB_TX_FIFO_WR_REG = CY_SYS_RCB_RBUS_FREQ_XTAL_NODIV_SET;
1191:Generated_Source\PSoC4/CyLib.c ****                 #endif
1192:Generated_Source\PSoC4/CyLib.c ****                 
1193:Generated_Source\PSoC4/CyLib.c ****                 intrRegMaskStore = CY_SYS_BLESS_INTR_MASK_REG;
1194:Generated_Source\PSoC4/CyLib.c ****                 if(0u != (CY_SYS_RCB_INTR_RCB_DONE & intrRegMaskStore))
1195:Generated_Source\PSoC4/CyLib.c ****                 {
1196:Generated_Source\PSoC4/CyLib.c ****                     CY_SYS_BLESS_INTR_MASK_REG &= ~(CY_SYS_RCB_INTR_RCB_DONE | CY_SYS_RCB_INTR_RCB_
1197:Generated_Source\PSoC4/CyLib.c ****                 }
1198:Generated_Source\PSoC4/CyLib.c ****                 
1199:Generated_Source\PSoC4/CyLib.c ****                 /* Send read commands to RBUS */
1200:Generated_Source\PSoC4/CyLib.c ****                 CY_SYS_RCB_TX_FIFO_WR_REG = (CY_SYS_RCB_RBUS_RD_CMD | 
1201:Generated_Source\PSoC4/CyLib.c ****                                             (CY_SYS_RCB_RBUS_RF_DCXO_CFG_SET & ~CY_SYS_RCB_RBUS_VAL
1202:Generated_Source\PSoC4/CyLib.c ****                                             
1203:Generated_Source\PSoC4/CyLib.c ****                 while (0u == (CY_SYS_RCB_INTR_RCB_RX_FIFO_NOT_EMPTY & CY_SYS_RCB_INTR_REG))
1204:Generated_Source\PSoC4/CyLib.c ****                 {
1205:Generated_Source\PSoC4/CyLib.c ****                     /* Wait until RX_FIFO_NOT_EMPTY state */
1206:Generated_Source\PSoC4/CyLib.c ****                 }
1207:Generated_Source\PSoC4/CyLib.c **** 
1208:Generated_Source\PSoC4/CyLib.c ****                 CY_SYS_RCB_INTR_REG |= CY_SYS_RCB_INTR_RCB_DONE;
1209:Generated_Source\PSoC4/CyLib.c ****                 
1210:Generated_Source\PSoC4/CyLib.c ****                 regConfig = CY_SYS_RCB_RX_FIFO_RD_REG & CY_SYS_RCB_RBUS_TRIM_MASK;
1211:Generated_Source\PSoC4/CyLib.c ****                 
1212:Generated_Source\PSoC4/CyLib.c ****                 /* Send write commands to RBUS */
1213:Generated_Source\PSoC4/CyLib.c ****                 CY_SYS_RCB_TX_FIFO_WR_REG = (CY_SYS_RCB_RBUS_RF_DCXO_CFG_SET | regConfig | CY_SYS_R
1214:Generated_Source\PSoC4/CyLib.c ****                 
1215:Generated_Source\PSoC4/CyLib.c ****                 while (0u == (CY_SYS_RCB_INTR_RCB_DONE & CY_SYS_RCB_INTR_REG))
1216:Generated_Source\PSoC4/CyLib.c ****                 {
1217:Generated_Source\PSoC4/CyLib.c ****                     /* Wait until RCB_DONE state */
1218:Generated_Source\PSoC4/CyLib.c ****                 }
1219:Generated_Source\PSoC4/CyLib.c ****                 
1220:Generated_Source\PSoC4/CyLib.c ****                 /* Clear Interrupt */
1221:Generated_Source\PSoC4/CyLib.c ****                 CY_SYS_RCB_INTR_REG = CY_SYS_RCB_INTR_CLEAR;
1222:Generated_Source\PSoC4/CyLib.c ****                 
1223:Generated_Source\PSoC4/CyLib.c ****                 if(0u != ((CY_SYS_RCB_INTR_RCB_DONE | CY_SYS_RCB_INTR_RCB_RX_FIFO_NOT_EMPTY) & intr
1224:Generated_Source\PSoC4/CyLib.c ****                 {
1225:Generated_Source\PSoC4/CyLib.c ****                     CY_SYS_BLESS_INTR_MASK_REG |= intrRegMaskStore;
1226:Generated_Source\PSoC4/CyLib.c ****                 }
1227:Generated_Source\PSoC4/CyLib.c ****                 
1228:Generated_Source\PSoC4/CyLib.c ****             }
1229:Generated_Source\PSoC4/CyLib.c ****         #else /* CY_IP_ECO_SRSSV2 || CY_IP_ECO_SRSSLT */
1230:Generated_Source\PSoC4/CyLib.c ****             CY_SYS_CLK_ECO_CONFIG_REG |= CY_SYS_CLK_ECO_CONFIG_ENABLE;
 1586              		.loc 1 1230 0
 1587 000c 154B     		ldr	r3, .L108
 1588 000e 154A     		ldr	r2, .L108
 1589 0010 1268     		ldr	r2, [r2]
 1590 0012 8021     		movs	r1, #128
 1591 0014 0906     		lsls	r1, r1, #24
 1592 0016 0A43     		orrs	r2, r1
 1593 0018 1A60     		str	r2, [r3]
1231:Generated_Source\PSoC4/CyLib.c ****             CyDelayUs(CY_SYS_CLK_ECO_CONFIG_CLK_EN_TIMEOUT_US);
 1594              		.loc 1 1231 0
 1595 001a 0A20     		movs	r0, #10
 1596 001c FFF7FEFF 		bl	CyDelayUs
ARM GAS  C:\Users\Jason\AppData\Local\Temp\cc7xyQyF.s 			page 51


1232:Generated_Source\PSoC4/CyLib.c ****             CY_SYS_CLK_ECO_CONFIG_REG |= CY_SYS_CLK_ECO_CONFIG_CLK_EN;
 1597              		.loc 1 1232 0
 1598 0020 104B     		ldr	r3, .L108
 1599 0022 104A     		ldr	r2, .L108
 1600 0024 1268     		ldr	r2, [r2]
 1601 0026 0121     		movs	r1, #1
 1602 0028 0A43     		orrs	r2, r1
 1603 002a 1A60     		str	r2, [r3]
1233:Generated_Source\PSoC4/CyLib.c ****         #endif /* (CY_IP_ECO_BLESS) */
1234:Generated_Source\PSoC4/CyLib.c **** 
1235:Generated_Source\PSoC4/CyLib.c ****         if(timeoutUs > 0u)
 1604              		.loc 1 1235 0
 1605 002c 7B68     		ldr	r3, [r7, #4]
 1606 002e 002B     		cmp	r3, #0
 1607 0030 12D0     		beq	.L103
1236:Generated_Source\PSoC4/CyLib.c ****         {
1237:Generated_Source\PSoC4/CyLib.c ****             returnStatus = CYRET_TIMEOUT;
 1608              		.loc 1 1237 0
 1609 0032 1023     		movs	r3, #16
 1610 0034 FB60     		str	r3, [r7, #12]
1238:Generated_Source\PSoC4/CyLib.c **** 
1239:Generated_Source\PSoC4/CyLib.c ****             for( ; timeoutUs > 0u; timeoutUs--)
 1611              		.loc 1 1239 0
 1612 0036 0CE0     		b	.L104
 1613              	.L106:
1240:Generated_Source\PSoC4/CyLib.c ****             {
1241:Generated_Source\PSoC4/CyLib.c ****                 CyDelayUs(1u);
 1614              		.loc 1 1241 0
 1615 0038 0120     		movs	r0, #1
 1616 003a FFF7FEFF 		bl	CyDelayUs
1242:Generated_Source\PSoC4/CyLib.c **** 
1243:Generated_Source\PSoC4/CyLib.c ****                 if(0u != CySysClkEcoReadStatus())
 1617              		.loc 1 1243 0
 1618 003e FFF7FEFF 		bl	CySysClkEcoReadStatus
 1619 0042 031E     		subs	r3, r0, #0
 1620 0044 02D0     		beq	.L105
1244:Generated_Source\PSoC4/CyLib.c ****                 {
1245:Generated_Source\PSoC4/CyLib.c ****                     returnStatus = CYRET_SUCCESS;
 1621              		.loc 1 1245 0
 1622 0046 0023     		movs	r3, #0
 1623 0048 FB60     		str	r3, [r7, #12]
1246:Generated_Source\PSoC4/CyLib.c ****                     break;
 1624              		.loc 1 1246 0
 1625 004a 05E0     		b	.L103
 1626              	.L105:
1239:Generated_Source\PSoC4/CyLib.c ****             {
 1627              		.loc 1 1239 0
 1628 004c 7B68     		ldr	r3, [r7, #4]
 1629 004e 013B     		subs	r3, r3, #1
 1630 0050 7B60     		str	r3, [r7, #4]
 1631              	.L104:
1239:Generated_Source\PSoC4/CyLib.c ****             {
 1632              		.loc 1 1239 0 is_stmt 0 discriminator 1
 1633 0052 7B68     		ldr	r3, [r7, #4]
 1634 0054 002B     		cmp	r3, #0
 1635 0056 EFD1     		bne	.L106
 1636              	.L103:
ARM GAS  C:\Users\Jason\AppData\Local\Temp\cc7xyQyF.s 			page 52


1247:Generated_Source\PSoC4/CyLib.c ****                 }
1248:Generated_Source\PSoC4/CyLib.c ****             }
1249:Generated_Source\PSoC4/CyLib.c **** 
1250:Generated_Source\PSoC4/CyLib.c ****         }
1251:Generated_Source\PSoC4/CyLib.c **** 
1252:Generated_Source\PSoC4/CyLib.c ****         return(returnStatus);
 1637              		.loc 1 1252 0 is_stmt 1
 1638 0058 FB68     		ldr	r3, [r7, #12]
1253:Generated_Source\PSoC4/CyLib.c ****     }
 1639              		.loc 1 1253 0
 1640 005a 1800     		movs	r0, r3
 1641 005c BD46     		mov	sp, r7
 1642 005e 04B0     		add	sp, sp, #16
 1643              		@ sp needed
 1644 0060 80BD     		pop	{r7, pc}
 1645              	.L109:
 1646 0062 C046     		.align	2
 1647              	.L108:
 1648 0064 08000C40 		.word	1074528264
 1649              		.cfi_endproc
 1650              	.LFE14:
 1651              		.size	CySysClkEcoStart, .-CySysClkEcoStart
 1652              		.section	.text.CySysClkEcoStop,"ax",%progbits
 1653              		.align	2
 1654              		.global	CySysClkEcoStop
 1655              		.code	16
 1656              		.thumb_func
 1657              		.type	CySysClkEcoStop, %function
 1658              	CySysClkEcoStop:
 1659              	.LFB15:
1254:Generated_Source\PSoC4/CyLib.c **** 
1255:Generated_Source\PSoC4/CyLib.c **** 
1256:Generated_Source\PSoC4/CyLib.c ****     /*******************************************************************************
1257:Generated_Source\PSoC4/CyLib.c ****     * Function Name: CySysClkEcoStop
1258:Generated_Source\PSoC4/CyLib.c ****     ****************************************************************************//**
1259:Generated_Source\PSoC4/CyLib.c ****     *
1260:Generated_Source\PSoC4/CyLib.c ****     * Stops the megahertz crystal.
1261:Generated_Source\PSoC4/CyLib.c ****     *
1262:Generated_Source\PSoC4/CyLib.c ****     * If ECO is disabled when it is sourcing HFCLK, the CPU will halt. In addition,
1263:Generated_Source\PSoC4/CyLib.c ****     * for PSoC 4100 BLE / PSoC 4200 BLE devices, the BLE sub-system will stop
1264:Generated_Source\PSoC4/CyLib.c ****     * functioning.
1265:Generated_Source\PSoC4/CyLib.c ****     *
1266:Generated_Source\PSoC4/CyLib.c ****     *******************************************************************************/
1267:Generated_Source\PSoC4/CyLib.c ****     void CySysClkEcoStop(void)
1268:Generated_Source\PSoC4/CyLib.c ****     {
 1660              		.loc 1 1268 0
 1661              		.cfi_startproc
 1662              		@ args = 0, pretend = 0, frame = 0
 1663              		@ frame_needed = 1, uses_anonymous_args = 0
 1664 0000 80B5     		push	{r7, lr}
 1665              		.cfi_def_cfa_offset 8
 1666              		.cfi_offset 7, -8
 1667              		.cfi_offset 14, -4
 1668 0002 00AF     		add	r7, sp, #0
 1669              		.cfi_def_cfa_register 7
1269:Generated_Source\PSoC4/CyLib.c ****         #if (CY_IP_WCO_BLESS)
1270:Generated_Source\PSoC4/CyLib.c ****             /* Disable the RF oscillator band gap */
ARM GAS  C:\Users\Jason\AppData\Local\Temp\cc7xyQyF.s 			page 53


1271:Generated_Source\PSoC4/CyLib.c ****             CY_SYS_XTAL_BLESS_RF_CONFIG_REG &= (uint32) ~CY_SYS_XTAL_BLESS_RF_CONFIG_RF_ENABLE;
1272:Generated_Source\PSoC4/CyLib.c **** 
1273:Generated_Source\PSoC4/CyLib.c ****             /* Disable the Crystal */
1274:Generated_Source\PSoC4/CyLib.c ****             CY_SYS_XTAL_BLERD_DBUS_REG &= (uint32) ~CY_SYS_XTAL_BLERD_DBUS_XTAL_ENABLE;
1275:Generated_Source\PSoC4/CyLib.c ****         #elif (CY_IP_ECO_BLESSV3)
1276:Generated_Source\PSoC4/CyLib.c ****             CY_SYS_BLESS_MT_CFG_REG &= ~(CY_SYS_BLESS_MT_CFG_DPSLP_ECO_ON  <<  CYFLD_BLE_BLESS_DPSL
1277:Generated_Source\PSoC4/CyLib.c ****         #else
1278:Generated_Source\PSoC4/CyLib.c ****             CY_SYS_CLK_ECO_CONFIG_REG &= (uint32) ~(CY_SYS_CLK_ECO_CONFIG_ENABLE | CY_SYS_CLK_ECO_C
 1670              		.loc 1 1278 0
 1671 0004 044B     		ldr	r3, .L111
 1672 0006 044A     		ldr	r2, .L111
 1673 0008 1268     		ldr	r2, [r2]
 1674 000a 0449     		ldr	r1, .L111+4
 1675 000c 0A40     		ands	r2, r1
 1676 000e 1A60     		str	r2, [r3]
1279:Generated_Source\PSoC4/CyLib.c ****         #endif /* (CY_IP_WCO_BLESS) */
1280:Generated_Source\PSoC4/CyLib.c ****     }
 1677              		.loc 1 1280 0
 1678 0010 C046     		nop
 1679 0012 BD46     		mov	sp, r7
 1680              		@ sp needed
 1681 0014 80BD     		pop	{r7, pc}
 1682              	.L112:
 1683 0016 C046     		.align	2
 1684              	.L111:
 1685 0018 08000C40 		.word	1074528264
 1686 001c FEFFFF7F 		.word	2147483646
 1687              		.cfi_endproc
 1688              	.LFE15:
 1689              		.size	CySysClkEcoStop, .-CySysClkEcoStop
 1690              		.section	.text.CySysClkEcoReadStatus,"ax",%progbits
 1691              		.align	2
 1692              		.global	CySysClkEcoReadStatus
 1693              		.code	16
 1694              		.thumb_func
 1695              		.type	CySysClkEcoReadStatus, %function
 1696              	CySysClkEcoReadStatus:
 1697              	.LFB16:
1281:Generated_Source\PSoC4/CyLib.c **** 
1282:Generated_Source\PSoC4/CyLib.c **** 
1283:Generated_Source\PSoC4/CyLib.c ****     /*******************************************************************************
1284:Generated_Source\PSoC4/CyLib.c ****     * Function Name: CySysClkEcoReadStatus
1285:Generated_Source\PSoC4/CyLib.c ****     ****************************************************************************//**
1286:Generated_Source\PSoC4/CyLib.c ****     *
1287:Generated_Source\PSoC4/CyLib.c ****     * Reads the status bit for the megahertz crystal.
1288:Generated_Source\PSoC4/CyLib.c ****     *
1289:Generated_Source\PSoC4/CyLib.c ****     * For PSoC 4100 BLE / PSoC 4200 BLE devices, the status bit is the
1290:Generated_Source\PSoC4/CyLib.c ****     * XO_AMP_DETECT bit in FSM register.
1291:Generated_Source\PSoC4/CyLib.c ****     *
1292:Generated_Source\PSoC4/CyLib.c ****     * For PSoC 4200L / 4100S with ECO devices, the error status bit is the 
1293:Generated_Source\PSoC4/CyLib.c ****     * WATCHDOG_ERROR bit in ECO_STATUS register.
1294:Generated_Source\PSoC4/CyLib.c ****     *
1295:Generated_Source\PSoC4/CyLib.c ****     * \return PSoC 4100 BLE/PSoC 4200 BLE: Non-zero indicates that ECO output
1296:Generated_Source\PSoC4/CyLib.c ****     * reached 50 ppm and is oscillating in valid range.
1297:Generated_Source\PSoC4/CyLib.c ****     *
1298:Generated_Source\PSoC4/CyLib.c ****     * \return PSoC 4200L / 4100S with ECO: Non-zero indicates that ECO is running.
1299:Generated_Source\PSoC4/CyLib.c ****     *
ARM GAS  C:\Users\Jason\AppData\Local\Temp\cc7xyQyF.s 			page 54


1300:Generated_Source\PSoC4/CyLib.c ****     *******************************************************************************/
1301:Generated_Source\PSoC4/CyLib.c ****     uint32 CySysClkEcoReadStatus(void)
1302:Generated_Source\PSoC4/CyLib.c ****     {
 1698              		.loc 1 1302 0
 1699              		.cfi_startproc
 1700              		@ args = 0, pretend = 0, frame = 8
 1701              		@ frame_needed = 1, uses_anonymous_args = 0
 1702 0000 80B5     		push	{r7, lr}
 1703              		.cfi_def_cfa_offset 8
 1704              		.cfi_offset 7, -8
 1705              		.cfi_offset 14, -4
 1706 0002 82B0     		sub	sp, sp, #8
 1707              		.cfi_def_cfa_offset 16
 1708 0004 00AF     		add	r7, sp, #0
 1709              		.cfi_def_cfa_register 7
1303:Generated_Source\PSoC4/CyLib.c ****         uint32 returnValue;
1304:Generated_Source\PSoC4/CyLib.c **** 
1305:Generated_Source\PSoC4/CyLib.c ****         #if (CY_IP_WCO_BLESS)
1306:Generated_Source\PSoC4/CyLib.c ****             returnValue = CY_SYS_XTAL_BLERD_FSM_REG & CY_SYS_XTAL_BLERD_FSM_XO_AMP_DETECT;
1307:Generated_Source\PSoC4/CyLib.c ****         #elif (CY_IP_ECO_BLESSV3)
1308:Generated_Source\PSoC4/CyLib.c ****             returnValue = (CY_SYS_BLESS_MT_STATUS_REG & CY_SYS_BLESS_MT_STATUS_CURR_STATE_MASK) >> 
1309:Generated_Source\PSoC4/CyLib.c **** 
1310:Generated_Source\PSoC4/CyLib.c ****             returnValue =  ((CY_SYS_BLESS_MT_STATUS_BLERD_IDLE == returnValue) || 
1311:Generated_Source\PSoC4/CyLib.c ****                             (CY_SYS_BLESS_MT_STATUS_SWITCH_EN  == returnValue) ||
1312:Generated_Source\PSoC4/CyLib.c ****                             (CY_SYS_BLESS_MT_STATUS_ACTIVE  ==  returnValue) ||
1313:Generated_Source\PSoC4/CyLib.c ****                             (CY_SYS_BLESS_MT_STATUS_ISOLATE == returnValue));
1314:Generated_Source\PSoC4/CyLib.c ****         #else
1315:Generated_Source\PSoC4/CyLib.c ****             returnValue = (0u != (CY_SYS_CLK_ECO_STATUS_REG & CY_SYS_CLK_ECO_STATUS_WATCHDOG_ERROR)
 1710              		.loc 1 1315 0
 1711 0006 064B     		ldr	r3, .L115
 1712 0008 1B68     		ldr	r3, [r3]
 1713 000a 0122     		movs	r2, #1
 1714 000c 1340     		ands	r3, r2
 1715 000e 5A42     		rsbs	r2, r3, #0
 1716 0010 5341     		adcs	r3, r3, r2
 1717 0012 DBB2     		uxtb	r3, r3
 1718 0014 7B60     		str	r3, [r7, #4]
1316:Generated_Source\PSoC4/CyLib.c ****         #endif /* (CY_IP_WCO_BLESS) */
1317:Generated_Source\PSoC4/CyLib.c **** 
1318:Generated_Source\PSoC4/CyLib.c ****         return (returnValue);
 1719              		.loc 1 1318 0
 1720 0016 7B68     		ldr	r3, [r7, #4]
1319:Generated_Source\PSoC4/CyLib.c ****     }
 1721              		.loc 1 1319 0
 1722 0018 1800     		movs	r0, r3
 1723 001a BD46     		mov	sp, r7
 1724 001c 02B0     		add	sp, sp, #8
 1725              		@ sp needed
 1726 001e 80BD     		pop	{r7, pc}
 1727              	.L116:
 1728              		.align	2
 1729              	.L115:
 1730 0020 0C000C40 		.word	1074528268
 1731              		.cfi_endproc
 1732              	.LFE16:
 1733              		.size	CySysClkEcoReadStatus, .-CySysClkEcoReadStatus
 1734              		.section	.text.CySysClkConfigureEcoTrim,"ax",%progbits
ARM GAS  C:\Users\Jason\AppData\Local\Temp\cc7xyQyF.s 			page 55


 1735              		.align	2
 1736              		.global	CySysClkConfigureEcoTrim
 1737              		.code	16
 1738              		.thumb_func
 1739              		.type	CySysClkConfigureEcoTrim, %function
 1740              	CySysClkConfigureEcoTrim:
 1741              	.LFB17:
1320:Generated_Source\PSoC4/CyLib.c **** 
1321:Generated_Source\PSoC4/CyLib.c ****     #if (CY_IP_ECO_BLESS || CY_IP_ECO_BLESSV3)
1322:Generated_Source\PSoC4/CyLib.c ****         /*******************************************************************************
1323:Generated_Source\PSoC4/CyLib.c ****         * Function Name: CySysClkWriteEcoDiv
1324:Generated_Source\PSoC4/CyLib.c ****         ****************************************************************************//**
1325:Generated_Source\PSoC4/CyLib.c ****         *
1326:Generated_Source\PSoC4/CyLib.c ****         * Selects value for the ECO divider.
1327:Generated_Source\PSoC4/CyLib.c ****         *
1328:Generated_Source\PSoC4/CyLib.c ****         * The ECO must not be the HFCLK clock source when this function is called.
1329:Generated_Source\PSoC4/CyLib.c ****         * The HFCLK source can be changed to the other clock source by call to the
1330:Generated_Source\PSoC4/CyLib.c ****         * CySysClkWriteHfclkDirect() function. If the ECO sources the HFCLK this
1331:Generated_Source\PSoC4/CyLib.c ****         * function will not have any effect if compiler in release mode, and halt the
1332:Generated_Source\PSoC4/CyLib.c ****         * CPU when compiler in debug mode.
1333:Generated_Source\PSoC4/CyLib.c ****         *
1334:Generated_Source\PSoC4/CyLib.c ****         * If the SYSCLK clock frequency increases during the device operation, call
1335:Generated_Source\PSoC4/CyLib.c ****         * CySysFlashSetWaitCycles() with the appropriate parameter to adjust the number
1336:Generated_Source\PSoC4/CyLib.c ****         * of clock cycles the cache will wait before sampling data comes back from
1337:Generated_Source\PSoC4/CyLib.c ****         * Flash. If the SYSCLK clock frequency decreases, you can call
1338:Generated_Source\PSoC4/CyLib.c ****         * CySysFlashSetWaitCycles() to improve the CPU performance. See
1339:Generated_Source\PSoC4/CyLib.c ****         * CySysFlashSetWaitCycles() description for more information.
1340:Generated_Source\PSoC4/CyLib.c ****         *
1341:Generated_Source\PSoC4/CyLib.c ****         * \param divider Power of 2 divider selection.
1342:Generated_Source\PSoC4/CyLib.c ****         * - \ref CY_SYS_CLK_ECO_DIV1
1343:Generated_Source\PSoC4/CyLib.c ****         * - \ref CY_SYS_CLK_ECO_DIV2
1344:Generated_Source\PSoC4/CyLib.c ****         * - \ref CY_SYS_CLK_ECO_DIV4
1345:Generated_Source\PSoC4/CyLib.c ****         * - \ref CY_SYS_CLK_ECO_DIV8
1346:Generated_Source\PSoC4/CyLib.c ****         *
1347:Generated_Source\PSoC4/CyLib.c ****         *******************************************************************************/
1348:Generated_Source\PSoC4/CyLib.c ****         void CySysClkWriteEcoDiv(uint32 divider)
1349:Generated_Source\PSoC4/CyLib.c ****         {
1350:Generated_Source\PSoC4/CyLib.c ****             uint8  interruptState;
1351:Generated_Source\PSoC4/CyLib.c **** 
1352:Generated_Source\PSoC4/CyLib.c ****             if (CY_SYS_CLK_HFCLK_ECO != (CY_SYS_CLK_SELECT_REG & CY_SYS_CLK_SELECT_DIRECT_SEL_MASK)
1353:Generated_Source\PSoC4/CyLib.c ****             {
1354:Generated_Source\PSoC4/CyLib.c ****                 interruptState = CyEnterCriticalSection();
1355:Generated_Source\PSoC4/CyLib.c **** 
1356:Generated_Source\PSoC4/CyLib.c ****                 CY_SYS_CLK_XTAL_CLK_DIV_CONFIG_REG =  (divider & CY_SYS_CLK_XTAL_CLK_DIV_MASK) |
1357:Generated_Source\PSoC4/CyLib.c ****                                                       (CY_SYS_CLK_XTAL_CLK_DIV_CONFIG_REG & ((uint3
1358:Generated_Source\PSoC4/CyLib.c **** 
1359:Generated_Source\PSoC4/CyLib.c ****                 CyExitCriticalSection(interruptState);
1360:Generated_Source\PSoC4/CyLib.c ****             }
1361:Generated_Source\PSoC4/CyLib.c ****             else
1362:Generated_Source\PSoC4/CyLib.c ****             {
1363:Generated_Source\PSoC4/CyLib.c ****                 /* Halt CPU in debug mode if ECO sources HFCLK */
1364:Generated_Source\PSoC4/CyLib.c ****                 CYASSERT(0u != 0u);
1365:Generated_Source\PSoC4/CyLib.c ****             }
1366:Generated_Source\PSoC4/CyLib.c ****         }
1367:Generated_Source\PSoC4/CyLib.c **** 
1368:Generated_Source\PSoC4/CyLib.c ****     #else
1369:Generated_Source\PSoC4/CyLib.c **** 
ARM GAS  C:\Users\Jason\AppData\Local\Temp\cc7xyQyF.s 			page 56


1370:Generated_Source\PSoC4/CyLib.c ****         /*******************************************************************************
1371:Generated_Source\PSoC4/CyLib.c ****         * Function Name: CySysClkConfigureEcoTrim
1372:Generated_Source\PSoC4/CyLib.c ****         ****************************************************************************//**
1373:Generated_Source\PSoC4/CyLib.c ****         *
1374:Generated_Source\PSoC4/CyLib.c ****         * Selects trim setting values for ECO. This API is available only for PSoC
1375:Generated_Source\PSoC4/CyLib.c ****         * 4200L / 4100S with ECO devices only.
1376:Generated_Source\PSoC4/CyLib.c ****         *
1377:Generated_Source\PSoC4/CyLib.c ****         * The following parameters can be trimmed for ECO. The affected registers are
1378:Generated_Source\PSoC4/CyLib.c ****         * ECO_TRIM0 and ECO_TRIM1.
1379:Generated_Source\PSoC4/CyLib.c ****         *
1380:Generated_Source\PSoC4/CyLib.c ****         * Watchdog trim - This bit field sets the error threshold below the steady
1381:Generated_Source\PSoC4/CyLib.c ****         * state amplitude level.
1382:Generated_Source\PSoC4/CyLib.c ****         *
1383:Generated_Source\PSoC4/CyLib.c ****         * Amplitude trim - This bit field is to set the crystal drive level when
1384:Generated_Source\PSoC4/CyLib.c ****         * ECO_CONFIG.AGC_EN = 1. WARNING: use care when setting this field because
1385:Generated_Source\PSoC4/CyLib.c ****         * driving a crystal beyond its rated limit can permanently damage the crystal.
1386:Generated_Source\PSoC4/CyLib.c ****         *
1387:Generated_Source\PSoC4/CyLib.c ****         * Filter frequency trim - This bit field sets LPF frequency trim and affects
1388:Generated_Source\PSoC4/CyLib.c ****         * the 3rd harmonic content.
1389:Generated_Source\PSoC4/CyLib.c ****         *
1390:Generated_Source\PSoC4/CyLib.c ****         * Feedback resistor trim - This bit field sets the feedback resistor trim and
1391:Generated_Source\PSoC4/CyLib.c ****         * impacts the oscillation amplitude.
1392:Generated_Source\PSoC4/CyLib.c ****         *
1393:Generated_Source\PSoC4/CyLib.c ****         * Amplifier gain trim - This bit field sets the amplifier gain trim and affects
1394:Generated_Source\PSoC4/CyLib.c ****         * the startup time of the crystal.
1395:Generated_Source\PSoC4/CyLib.c ****         *
1396:Generated_Source\PSoC4/CyLib.c ****         * Use care when setting the amplitude trim field because driving a crystal
1397:Generated_Source\PSoC4/CyLib.c ****         * beyond its rated limit can permanently damage the crystal.
1398:Generated_Source\PSoC4/CyLib.c ****         *
1399:Generated_Source\PSoC4/CyLib.c ****         * \param wDTrim: Watchdog trim
1400:Generated_Source\PSoC4/CyLib.c ****         * - \ref CY_SYS_CLK_ECO_WDTRIM0      Error threshold is 0.05 V
1401:Generated_Source\PSoC4/CyLib.c ****         * - \ref CY_SYS_CLK_ECO_WDTRIM1      Error threshold is 0.10 V
1402:Generated_Source\PSoC4/CyLib.c ****         * - \ref CY_SYS_CLK_ECO_WDTRIM2      Error threshold is 0.15 V
1403:Generated_Source\PSoC4/CyLib.c ****         * - \ref CY_SYS_CLK_ECO_WDTRIM3      Error threshold is 0.20 V
1404:Generated_Source\PSoC4/CyLib.c ****         *
1405:Generated_Source\PSoC4/CyLib.c ****         * \param aTrim: Amplitude trim
1406:Generated_Source\PSoC4/CyLib.c ****         * - \ref CY_SYS_CLK_ECO_ATRIM0       Amplitude is 0.3 Vpp
1407:Generated_Source\PSoC4/CyLib.c ****         * - \ref CY_SYS_CLK_ECO_ATRIM1       Amplitude is 0.4 Vpp
1408:Generated_Source\PSoC4/CyLib.c ****         * - \ref CY_SYS_CLK_ECO_ATRIM2       Amplitude is 0.5 Vpp
1409:Generated_Source\PSoC4/CyLib.c ****         * - \ref CY_SYS_CLK_ECO_ATRIM3       Amplitude is 0.6 Vpp
1410:Generated_Source\PSoC4/CyLib.c ****         * - \ref CY_SYS_CLK_ECO_ATRIM4       Amplitude is 0.7 Vpp
1411:Generated_Source\PSoC4/CyLib.c ****         * - \ref CY_SYS_CLK_ECO_ATRIM5       Amplitude is 0.8 Vpp
1412:Generated_Source\PSoC4/CyLib.c ****         * - \ref CY_SYS_CLK_ECO_ATRIM6       Amplitude is 0.9 Vpp
1413:Generated_Source\PSoC4/CyLib.c ****         * - \ref CY_SYS_CLK_ECO_ATRIM7       Amplitude is 1.0 Vpp
1414:Generated_Source\PSoC4/CyLib.c ****         *
1415:Generated_Source\PSoC4/CyLib.c ****         * \param fTrim: Filter frequency trim
1416:Generated_Source\PSoC4/CyLib.c ****         * - \ref CY_SYS_CLK_ECO_FTRIM0       Crystal frequency > 30 MHz
1417:Generated_Source\PSoC4/CyLib.c ****         * - \ref CY_SYS_CLK_ECO_FTRIM1       24 MHz < Crystal frequency <= 30 MHz
1418:Generated_Source\PSoC4/CyLib.c ****         * - \ref CY_SYS_CLK_ECO_FTRIM2       17 MHz < Crystal frequency <= 24 MHz
1419:Generated_Source\PSoC4/CyLib.c ****         * - \ref CY_SYS_CLK_ECO_FTRIM3       Crystal frequency <= 17 MHz
1420:Generated_Source\PSoC4/CyLib.c ****         *
1421:Generated_Source\PSoC4/CyLib.c ****         * \param rTrim: Feedback resistor trim
1422:Generated_Source\PSoC4/CyLib.c ****         * - \ref CY_SYS_CLK_ECO_RTRIM0       Crystal frequency > 30 MHz
1423:Generated_Source\PSoC4/CyLib.c ****         * - \ref CY_SYS_CLK_ECO_RTRIM1       24 MHz < Crystal frequency <= 30 MHz
1424:Generated_Source\PSoC4/CyLib.c ****         * - \ref CY_SYS_CLK_ECO_RTRIM2       17 MHz < Crystal frequency <= 24 MHz
1425:Generated_Source\PSoC4/CyLib.c ****         * - \ref CY_SYS_CLK_ECO_RTRIM3       Crystal frequency <= 17 MHz
1426:Generated_Source\PSoC4/CyLib.c ****         *
ARM GAS  C:\Users\Jason\AppData\Local\Temp\cc7xyQyF.s 			page 57


1427:Generated_Source\PSoC4/CyLib.c ****         * \param gTrim: Amplifier gain trim. Calculate the minimum required gm
1428:Generated_Source\PSoC4/CyLib.c ****         * (trans-conductance value). Divide the calculated gm value by 4.5 to
1429:Generated_Source\PSoC4/CyLib.c ****         * obtain an integer value 'result'. For more information please refer
1430:Generated_Source\PSoC4/CyLib.c ****         * to the device TRM.
1431:Generated_Source\PSoC4/CyLib.c ****         * - \ref CY_SYS_CLK_ECO_GTRIM0       If result = 1
1432:Generated_Source\PSoC4/CyLib.c ****         * - \ref CY_SYS_CLK_ECO_GTRIM1       If result = 0
1433:Generated_Source\PSoC4/CyLib.c ****         * - \ref CY_SYS_CLK_ECO_GTRIM2       If result = 2
1434:Generated_Source\PSoC4/CyLib.c ****         * - \ref CY_SYS_CLK_ECO_GTRIM2       If result = 3
1435:Generated_Source\PSoC4/CyLib.c ****         *
1436:Generated_Source\PSoC4/CyLib.c ****         *******************************************************************************/
1437:Generated_Source\PSoC4/CyLib.c ****         void CySysClkConfigureEcoTrim(uint32 wDTrim, uint32 aTrim, uint32 fTrim, uint32 rTrim, uint
1438:Generated_Source\PSoC4/CyLib.c ****         {
 1742              		.loc 1 1438 0
 1743              		.cfi_startproc
 1744              		@ args = 4, pretend = 0, frame = 24
 1745              		@ frame_needed = 1, uses_anonymous_args = 0
 1746 0000 90B5     		push	{r4, r7, lr}
 1747              		.cfi_def_cfa_offset 12
 1748              		.cfi_offset 4, -12
 1749              		.cfi_offset 7, -8
 1750              		.cfi_offset 14, -4
 1751 0002 87B0     		sub	sp, sp, #28
 1752              		.cfi_def_cfa_offset 40
 1753 0004 00AF     		add	r7, sp, #0
 1754              		.cfi_def_cfa_register 7
 1755 0006 F860     		str	r0, [r7, #12]
 1756 0008 B960     		str	r1, [r7, #8]
 1757 000a 7A60     		str	r2, [r7, #4]
 1758 000c 3B60     		str	r3, [r7]
1439:Generated_Source\PSoC4/CyLib.c ****             uint8  interruptState;
1440:Generated_Source\PSoC4/CyLib.c ****             uint32 regTmp;
1441:Generated_Source\PSoC4/CyLib.c **** 
1442:Generated_Source\PSoC4/CyLib.c ****             interruptState = CyEnterCriticalSection();
 1759              		.loc 1 1442 0
 1760 000e 1723     		movs	r3, #23
 1761 0010 FC18     		adds	r4, r7, r3
 1762 0012 FFF7FEFF 		bl	CyEnterCriticalSection
 1763 0016 0300     		movs	r3, r0
 1764 0018 2370     		strb	r3, [r4]
1443:Generated_Source\PSoC4/CyLib.c **** 
1444:Generated_Source\PSoC4/CyLib.c ****             regTmp  = CY_SYS_CLK_ECO_TRIM0_REG & ~(CY_SYS_CLK_ECO_TRIM0_WDTRIM_MASK | CY_SYS_CLK_EC
 1765              		.loc 1 1444 0
 1766 001a 1D4B     		ldr	r3, .L118
 1767 001c 1B68     		ldr	r3, [r3]
 1768 001e 1F22     		movs	r2, #31
 1769 0020 9343     		bics	r3, r2
 1770 0022 3B61     		str	r3, [r7, #16]
1445:Generated_Source\PSoC4/CyLib.c ****             regTmp |= ((uint32) (wDTrim << CY_SYS_CLK_ECO_TRIM0_WDTRIM_SHIFT) & CY_SYS_CLK_ECO_TRIM
 1771              		.loc 1 1445 0
 1772 0024 FB68     		ldr	r3, [r7, #12]
 1773 0026 0322     		movs	r2, #3
 1774 0028 1340     		ands	r3, r2
 1775 002a 3A69     		ldr	r2, [r7, #16]
 1776 002c 1343     		orrs	r3, r2
 1777 002e 3B61     		str	r3, [r7, #16]
1446:Generated_Source\PSoC4/CyLib.c ****             regTmp |= ((uint32) (aTrim << CY_SYS_CLK_ECO_TRIM0_ATRIM_SHIFT) & CY_SYS_CLK_ECO_TRIM0_
 1778              		.loc 1 1446 0
ARM GAS  C:\Users\Jason\AppData\Local\Temp\cc7xyQyF.s 			page 58


 1779 0030 BB68     		ldr	r3, [r7, #8]
 1780 0032 9B00     		lsls	r3, r3, #2
 1781 0034 1C22     		movs	r2, #28
 1782 0036 1340     		ands	r3, r2
 1783 0038 3A69     		ldr	r2, [r7, #16]
 1784 003a 1343     		orrs	r3, r2
 1785 003c 3B61     		str	r3, [r7, #16]
1447:Generated_Source\PSoC4/CyLib.c ****             CY_SYS_CLK_ECO_TRIM0_REG = regTmp;
 1786              		.loc 1 1447 0
 1787 003e 144B     		ldr	r3, .L118
 1788 0040 3A69     		ldr	r2, [r7, #16]
 1789 0042 1A60     		str	r2, [r3]
1448:Generated_Source\PSoC4/CyLib.c **** 
1449:Generated_Source\PSoC4/CyLib.c ****             regTmp  = CY_SYS_CLK_ECO_TRIM1_REG & ~(CY_SYS_CLK_ECO_TRIM1_FTRIM_MASK |
 1790              		.loc 1 1449 0
 1791 0044 134B     		ldr	r3, .L118+4
 1792 0046 1B68     		ldr	r3, [r3]
 1793 0048 3F22     		movs	r2, #63
 1794 004a 9343     		bics	r3, r2
 1795 004c 3B61     		str	r3, [r7, #16]
1450:Generated_Source\PSoC4/CyLib.c ****                                                    CY_SYS_CLK_ECO_TRIM1_RTRIM_MASK |
1451:Generated_Source\PSoC4/CyLib.c ****                                                    CY_SYS_CLK_ECO_TRIM1_GTRIM_MASK);
1452:Generated_Source\PSoC4/CyLib.c ****             regTmp |= ((uint32) (fTrim << CY_SYS_CLK_ECO_TRIM1_FTRIM_SHIFT) & CY_SYS_CLK_ECO_TRIM1_
 1796              		.loc 1 1452 0
 1797 004e 7B68     		ldr	r3, [r7, #4]
 1798 0050 0322     		movs	r2, #3
 1799 0052 1340     		ands	r3, r2
 1800 0054 3A69     		ldr	r2, [r7, #16]
 1801 0056 1343     		orrs	r3, r2
 1802 0058 3B61     		str	r3, [r7, #16]
1453:Generated_Source\PSoC4/CyLib.c ****             regTmp |= ((uint32) (rTrim << CY_SYS_CLK_ECO_TRIM1_RTRIM_SHIFT) & CY_SYS_CLK_ECO_TRIM1_
 1803              		.loc 1 1453 0
 1804 005a 3B68     		ldr	r3, [r7]
 1805 005c 9B00     		lsls	r3, r3, #2
 1806 005e 0C22     		movs	r2, #12
 1807 0060 1340     		ands	r3, r2
 1808 0062 3A69     		ldr	r2, [r7, #16]
 1809 0064 1343     		orrs	r3, r2
 1810 0066 3B61     		str	r3, [r7, #16]
1454:Generated_Source\PSoC4/CyLib.c ****             regTmp |= ((uint32) (gTrim << CY_SYS_CLK_ECO_TRIM1_GTRIM_SHIFT) & CY_SYS_CLK_ECO_TRIM1_
 1811              		.loc 1 1454 0
 1812 0068 BB6A     		ldr	r3, [r7, #40]
 1813 006a 1B01     		lsls	r3, r3, #4
 1814 006c 3022     		movs	r2, #48
 1815 006e 1340     		ands	r3, r2
 1816 0070 3A69     		ldr	r2, [r7, #16]
 1817 0072 1343     		orrs	r3, r2
 1818 0074 3B61     		str	r3, [r7, #16]
1455:Generated_Source\PSoC4/CyLib.c **** 
1456:Generated_Source\PSoC4/CyLib.c ****             CY_SYS_CLK_ECO_TRIM1_REG = regTmp;
 1819              		.loc 1 1456 0
 1820 0076 074B     		ldr	r3, .L118+4
 1821 0078 3A69     		ldr	r2, [r7, #16]
 1822 007a 1A60     		str	r2, [r3]
1457:Generated_Source\PSoC4/CyLib.c **** 
1458:Generated_Source\PSoC4/CyLib.c ****             CyExitCriticalSection(interruptState);
 1823              		.loc 1 1458 0
ARM GAS  C:\Users\Jason\AppData\Local\Temp\cc7xyQyF.s 			page 59


 1824 007c 1723     		movs	r3, #23
 1825 007e FB18     		adds	r3, r7, r3
 1826 0080 1B78     		ldrb	r3, [r3]
 1827 0082 1800     		movs	r0, r3
 1828 0084 FFF7FEFF 		bl	CyExitCriticalSection
1459:Generated_Source\PSoC4/CyLib.c ****         }
 1829              		.loc 1 1459 0
 1830 0088 C046     		nop
 1831 008a BD46     		mov	sp, r7
 1832 008c 07B0     		add	sp, sp, #28
 1833              		@ sp needed
 1834 008e 90BD     		pop	{r4, r7, pc}
 1835              	.L119:
 1836              		.align	2
 1837              	.L118:
 1838 0090 0CFF0C40 		.word	1074593548
 1839 0094 10FF0C40 		.word	1074593552
 1840              		.cfi_endproc
 1841              	.LFE17:
 1842              		.size	CySysClkConfigureEcoTrim, .-CySysClkConfigureEcoTrim
 1843              		.global	__aeabi_uidiv
 1844              		.section	.text.CySysClkConfigureEcoDrive,"ax",%progbits
 1845              		.align	2
 1846              		.global	CySysClkConfigureEcoDrive
 1847              		.code	16
 1848              		.thumb_func
 1849              		.type	CySysClkConfigureEcoDrive, %function
 1850              	CySysClkConfigureEcoDrive:
 1851              	.LFB18:
1460:Generated_Source\PSoC4/CyLib.c **** 
1461:Generated_Source\PSoC4/CyLib.c **** 
1462:Generated_Source\PSoC4/CyLib.c ****         /*******************************************************************************
1463:Generated_Source\PSoC4/CyLib.c ****         * Function Name: CySysClkConfigureEcoDrive
1464:Generated_Source\PSoC4/CyLib.c ****         ****************************************************************************//**
1465:Generated_Source\PSoC4/CyLib.c ****         *
1466:Generated_Source\PSoC4/CyLib.c ****         * Selects trim setting values for ECO based on crystal parameters. Use care
1467:Generated_Source\PSoC4/CyLib.c ****         * when setting the driveLevel parameter because driving a crystal beyond its
1468:Generated_Source\PSoC4/CyLib.c ****         * rated limit can permanently damage the crystal.
1469:Generated_Source\PSoC4/CyLib.c ****         *
1470:Generated_Source\PSoC4/CyLib.c ****         * This API is available only for PSoC 4200L / 4100S with ECO devices only.
1471:Generated_Source\PSoC4/CyLib.c ****         *
1472:Generated_Source\PSoC4/CyLib.c ****         * \param freq Frequency of the crystal in kHz.
1473:Generated_Source\PSoC4/CyLib.c ****         * \param cLoad Crystal load capacitance in pF.
1474:Generated_Source\PSoC4/CyLib.c ****         * \param esr Equivalent series resistance of the crystal in ohm.
1475:Generated_Source\PSoC4/CyLib.c ****         *  maxAmplitude: maximum amplitude level in mV. Calculate as
1476:Generated_Source\PSoC4/CyLib.c ****         *  ((sqrt(driveLevel in uW / 2 / esr))/(3.14 * freq * cLoad)) * 10^9.
1477:Generated_Source\PSoC4/CyLib.c ****         *
1478:Generated_Source\PSoC4/CyLib.c ****         *  The Automatic Gain Control (AGC) is disabled when the specified maximum
1479:Generated_Source\PSoC4/CyLib.c ****         *  amplitude level equals or above 2. In this case the amplitude is not
1480:Generated_Source\PSoC4/CyLib.c ****         *  explicitly controlled and will grow until it saturates to the supply rail
1481:Generated_Source\PSoC4/CyLib.c ****         *  (1.8V nom). WARNING: use care when disabling AGC because driving a crystal
1482:Generated_Source\PSoC4/CyLib.c ****         *  beyond its rated limit can permanently damage the crystal.
1483:Generated_Source\PSoC4/CyLib.c ****         *
1484:Generated_Source\PSoC4/CyLib.c ****         * \return \ref CYRET_SUCCESS ECO configuration completed successfully.
1485:Generated_Source\PSoC4/CyLib.c ****         * \return \ref CYRET_BAD_PARAM One or more invalid parameters.
1486:Generated_Source\PSoC4/CyLib.c ****         *
1487:Generated_Source\PSoC4/CyLib.c ****         *******************************************************************************/
ARM GAS  C:\Users\Jason\AppData\Local\Temp\cc7xyQyF.s 			page 60


1488:Generated_Source\PSoC4/CyLib.c ****         cystatus CySysClkConfigureEcoDrive(uint32 freq, uint32 cLoad, uint32 esr, uint32 maxAmplitu
1489:Generated_Source\PSoC4/CyLib.c ****         {
 1852              		.loc 1 1489 0
 1853              		.cfi_startproc
 1854              		@ args = 0, pretend = 0, frame = 48
 1855              		@ frame_needed = 1, uses_anonymous_args = 0
 1856 0000 90B5     		push	{r4, r7, lr}
 1857              		.cfi_def_cfa_offset 12
 1858              		.cfi_offset 4, -12
 1859              		.cfi_offset 7, -8
 1860              		.cfi_offset 14, -4
 1861 0002 8FB0     		sub	sp, sp, #60
 1862              		.cfi_def_cfa_offset 72
 1863 0004 02AF     		add	r7, sp, #8
 1864              		.cfi_def_cfa 7, 64
 1865 0006 F860     		str	r0, [r7, #12]
 1866 0008 B960     		str	r1, [r7, #8]
 1867 000a 7A60     		str	r2, [r7, #4]
 1868 000c 3B60     		str	r3, [r7]
1490:Generated_Source\PSoC4/CyLib.c ****             cystatus returnStatus = CYRET_SUCCESS;
 1869              		.loc 1 1490 0
 1870 000e 0023     		movs	r3, #0
 1871 0010 FB62     		str	r3, [r7, #44]
1491:Generated_Source\PSoC4/CyLib.c **** 
1492:Generated_Source\PSoC4/CyLib.c ****             uint32 wDTrim;
1493:Generated_Source\PSoC4/CyLib.c ****             uint32 aTrim;
1494:Generated_Source\PSoC4/CyLib.c ****             uint32 fTrim;
1495:Generated_Source\PSoC4/CyLib.c ****             uint32 rTrim;
1496:Generated_Source\PSoC4/CyLib.c ****             uint32 gTrim;
1497:Generated_Source\PSoC4/CyLib.c **** 
1498:Generated_Source\PSoC4/CyLib.c ****             uint32 gmMin;
1499:Generated_Source\PSoC4/CyLib.c **** 
1500:Generated_Source\PSoC4/CyLib.c **** 
1501:Generated_Source\PSoC4/CyLib.c ****             if ((maxAmplitude < CY_SYS_CLK_ECO_MAX_AMPL_MIN_mV) ||
 1872              		.loc 1 1501 0
 1873 0012 3A68     		ldr	r2, [r7]
 1874 0014 F423     		movs	r3, #244
 1875 0016 FF33     		adds	r3, r3, #255
 1876 0018 9A42     		cmp	r2, r3
 1877 001a 07D9     		bls	.L121
 1878              		.loc 1 1501 0 is_stmt 0 discriminator 1
 1879 001c FB68     		ldr	r3, [r7, #12]
 1880 001e 634A     		ldr	r2, .L145
 1881 0020 9342     		cmp	r3, r2
 1882 0022 03D9     		bls	.L121
1502:Generated_Source\PSoC4/CyLib.c ****                 (freq < CY_SYS_CLK_ECO_FREQ_KHZ_MIN) || (freq > CY_SYS_CLK_ECO_FREQ_KHZ_MAX))
 1883              		.loc 1 1502 0 is_stmt 1
 1884 0024 FB68     		ldr	r3, [r7, #12]
 1885 0026 624A     		ldr	r2, .L145+4
 1886 0028 9342     		cmp	r3, r2
 1887 002a 02D9     		bls	.L122
 1888              	.L121:
1503:Generated_Source\PSoC4/CyLib.c ****             {
1504:Generated_Source\PSoC4/CyLib.c ****                 returnStatus = CYRET_BAD_PARAM;
 1889              		.loc 1 1504 0
 1890 002c 0123     		movs	r3, #1
 1891 002e FB62     		str	r3, [r7, #44]
ARM GAS  C:\Users\Jason\AppData\Local\Temp\cc7xyQyF.s 			page 61


 1892 0030 B6E0     		b	.L123
 1893              	.L122:
1505:Generated_Source\PSoC4/CyLib.c ****             }
1506:Generated_Source\PSoC4/CyLib.c ****             else
1507:Generated_Source\PSoC4/CyLib.c ****             {
1508:Generated_Source\PSoC4/CyLib.c ****                 /* Calculate amplitude trim */
1509:Generated_Source\PSoC4/CyLib.c ****                 aTrim = (maxAmplitude < CY_SYS_CLK_ECO_TRIM_BOUNDARY) ? ((maxAmplitude/100u) - 4u) 
 1894              		.loc 1 1509 0
 1895 0032 3B68     		ldr	r3, [r7]
 1896 0034 5F4A     		ldr	r2, .L145+8
 1897 0036 9342     		cmp	r3, r2
 1898 0038 07D8     		bhi	.L124
 1899              		.loc 1 1509 0 is_stmt 0 discriminator 1
 1900 003a 3B68     		ldr	r3, [r7]
 1901 003c 6421     		movs	r1, #100
 1902 003e 1800     		movs	r0, r3
 1903 0040 FFF7FEFF 		bl	__aeabi_uidiv
 1904 0044 0300     		movs	r3, r0
 1905 0046 043B     		subs	r3, r3, #4
 1906 0048 00E0     		b	.L125
 1907              	.L124:
 1908              		.loc 1 1509 0 discriminator 2
 1909 004a 0723     		movs	r3, #7
 1910              	.L125:
 1911              		.loc 1 1509 0 discriminator 4
 1912 004c BB62     		str	r3, [r7, #40]
1510:Generated_Source\PSoC4/CyLib.c **** 
1511:Generated_Source\PSoC4/CyLib.c ****                 if (maxAmplitude < CY_SYS_CLK_ECO_AMPL_FOR_ATRIM0)
 1913              		.loc 1 1511 0 is_stmt 1 discriminator 4
 1914 004e 3B68     		ldr	r3, [r7]
 1915 0050 594A     		ldr	r2, .L145+12
 1916 0052 9342     		cmp	r3, r2
 1917 0054 02D8     		bhi	.L126
1512:Generated_Source\PSoC4/CyLib.c ****                 {
1513:Generated_Source\PSoC4/CyLib.c ****                     aTrim = CY_SYS_CLK_ECO_ATRIM0;
 1918              		.loc 1 1513 0
 1919 0056 0023     		movs	r3, #0
 1920 0058 BB62     		str	r3, [r7, #40]
 1921 005a 2CE0     		b	.L127
 1922              	.L126:
1514:Generated_Source\PSoC4/CyLib.c ****                 }
1515:Generated_Source\PSoC4/CyLib.c ****                 else if (maxAmplitude < CY_SYS_CLK_ECO_AMPL_FOR_ATRIM1)
 1923              		.loc 1 1515 0
 1924 005c 3B68     		ldr	r3, [r7]
 1925 005e 574A     		ldr	r2, .L145+16
 1926 0060 9342     		cmp	r3, r2
 1927 0062 02D8     		bhi	.L128
1516:Generated_Source\PSoC4/CyLib.c ****                 {
1517:Generated_Source\PSoC4/CyLib.c ****                     aTrim = CY_SYS_CLK_ECO_ATRIM1;
 1928              		.loc 1 1517 0
 1929 0064 0123     		movs	r3, #1
 1930 0066 BB62     		str	r3, [r7, #40]
 1931 0068 25E0     		b	.L127
 1932              	.L128:
1518:Generated_Source\PSoC4/CyLib.c ****                 }
1519:Generated_Source\PSoC4/CyLib.c ****                 else if (maxAmplitude < CY_SYS_CLK_ECO_AMPL_FOR_ATRIM2)
 1933              		.loc 1 1519 0
ARM GAS  C:\Users\Jason\AppData\Local\Temp\cc7xyQyF.s 			page 62


 1934 006a 3B68     		ldr	r3, [r7]
 1935 006c 544A     		ldr	r2, .L145+20
 1936 006e 9342     		cmp	r3, r2
 1937 0070 02D8     		bhi	.L129
1520:Generated_Source\PSoC4/CyLib.c ****                 {
1521:Generated_Source\PSoC4/CyLib.c ****                     aTrim = CY_SYS_CLK_ECO_ATRIM2;
 1938              		.loc 1 1521 0
 1939 0072 0223     		movs	r3, #2
 1940 0074 BB62     		str	r3, [r7, #40]
 1941 0076 1EE0     		b	.L127
 1942              	.L129:
1522:Generated_Source\PSoC4/CyLib.c ****                 }
1523:Generated_Source\PSoC4/CyLib.c ****                 else if (maxAmplitude < CY_SYS_CLK_ECO_AMPL_FOR_ATRIM3)
 1943              		.loc 1 1523 0
 1944 0078 3B68     		ldr	r3, [r7]
 1945 007a 524A     		ldr	r2, .L145+24
 1946 007c 9342     		cmp	r3, r2
 1947 007e 02D8     		bhi	.L130
1524:Generated_Source\PSoC4/CyLib.c ****                 {
1525:Generated_Source\PSoC4/CyLib.c ****                     aTrim = CY_SYS_CLK_ECO_ATRIM3;
 1948              		.loc 1 1525 0
 1949 0080 0323     		movs	r3, #3
 1950 0082 BB62     		str	r3, [r7, #40]
 1951 0084 17E0     		b	.L127
 1952              	.L130:
1526:Generated_Source\PSoC4/CyLib.c ****                 }
1527:Generated_Source\PSoC4/CyLib.c ****                 else if (maxAmplitude < CY_SYS_CLK_ECO_AMPL_FOR_ATRIM4)
 1953              		.loc 1 1527 0
 1954 0086 3A68     		ldr	r2, [r7]
 1955 0088 8023     		movs	r3, #128
 1956 008a DB00     		lsls	r3, r3, #3
 1957 008c 9A42     		cmp	r2, r3
 1958 008e 02D8     		bhi	.L131
1528:Generated_Source\PSoC4/CyLib.c ****                 {
1529:Generated_Source\PSoC4/CyLib.c ****                     aTrim = CY_SYS_CLK_ECO_ATRIM4;
 1959              		.loc 1 1529 0
 1960 0090 0423     		movs	r3, #4
 1961 0092 BB62     		str	r3, [r7, #40]
 1962 0094 0FE0     		b	.L127
 1963              	.L131:
1530:Generated_Source\PSoC4/CyLib.c ****                 }
1531:Generated_Source\PSoC4/CyLib.c ****                 else if (maxAmplitude < CY_SYS_CLK_ECO_AMPL_FOR_ATRIM5)
 1964              		.loc 1 1531 0
 1965 0096 3B68     		ldr	r3, [r7]
 1966 0098 4B4A     		ldr	r2, .L145+28
 1967 009a 9342     		cmp	r3, r2
 1968 009c 02D8     		bhi	.L132
1532:Generated_Source\PSoC4/CyLib.c ****                 {
1533:Generated_Source\PSoC4/CyLib.c ****                     aTrim = CY_SYS_CLK_ECO_ATRIM5;
 1969              		.loc 1 1533 0
 1970 009e 0523     		movs	r3, #5
 1971 00a0 BB62     		str	r3, [r7, #40]
 1972 00a2 08E0     		b	.L127
 1973              	.L132:
1534:Generated_Source\PSoC4/CyLib.c ****                 }
1535:Generated_Source\PSoC4/CyLib.c ****                 else if (maxAmplitude < CY_SYS_CLK_ECO_AMPL_FOR_ATRIM6)
 1974              		.loc 1 1535 0
ARM GAS  C:\Users\Jason\AppData\Local\Temp\cc7xyQyF.s 			page 63


 1975 00a4 3B68     		ldr	r3, [r7]
 1976 00a6 494A     		ldr	r2, .L145+32
 1977 00a8 9342     		cmp	r3, r2
 1978 00aa 02D8     		bhi	.L133
1536:Generated_Source\PSoC4/CyLib.c ****                 {
1537:Generated_Source\PSoC4/CyLib.c ****                     aTrim = CY_SYS_CLK_ECO_ATRIM6;
 1979              		.loc 1 1537 0
 1980 00ac 0623     		movs	r3, #6
 1981 00ae BB62     		str	r3, [r7, #40]
 1982 00b0 01E0     		b	.L127
 1983              	.L133:
1538:Generated_Source\PSoC4/CyLib.c ****                 }
1539:Generated_Source\PSoC4/CyLib.c ****                 else
1540:Generated_Source\PSoC4/CyLib.c ****                 {
1541:Generated_Source\PSoC4/CyLib.c ****                     aTrim = CY_SYS_CLK_ECO_ATRIM7;
 1984              		.loc 1 1541 0
 1985 00b2 0723     		movs	r3, #7
 1986 00b4 BB62     		str	r3, [r7, #40]
 1987              	.L127:
1542:Generated_Source\PSoC4/CyLib.c ****                 }
1543:Generated_Source\PSoC4/CyLib.c **** 
1544:Generated_Source\PSoC4/CyLib.c ****                 /* Calculate Watchdog trim. */
1545:Generated_Source\PSoC4/CyLib.c ****                 wDTrim = (maxAmplitude < CY_SYS_CLK_ECO_TRIM_BOUNDARY) ? ((maxAmplitude/200u) - 2u)
 1988              		.loc 1 1545 0
 1989 00b6 3B68     		ldr	r3, [r7]
 1990 00b8 3E4A     		ldr	r2, .L145+8
 1991 00ba 9342     		cmp	r3, r2
 1992 00bc 07D8     		bhi	.L134
 1993              		.loc 1 1545 0 is_stmt 0 discriminator 1
 1994 00be 3B68     		ldr	r3, [r7]
 1995 00c0 C821     		movs	r1, #200
 1996 00c2 1800     		movs	r0, r3
 1997 00c4 FFF7FEFF 		bl	__aeabi_uidiv
 1998 00c8 0300     		movs	r3, r0
 1999 00ca 023B     		subs	r3, r3, #2
 2000 00cc 00E0     		b	.L135
 2001              	.L134:
 2002              		.loc 1 1545 0 discriminator 2
 2003 00ce 0323     		movs	r3, #3
 2004              	.L135:
 2005              		.loc 1 1545 0 discriminator 4
 2006 00d0 FB61     		str	r3, [r7, #28]
1546:Generated_Source\PSoC4/CyLib.c **** 
1547:Generated_Source\PSoC4/CyLib.c ****                 /* Calculate amplifier gain trim. */
1548:Generated_Source\PSoC4/CyLib.c ****                 gmMin = (uint32) (((((CY_SYS_CLK_ECO_GMMIN_COEFFICIENT * freq * cLoad) / 1000) * ((
 2007              		.loc 1 1548 0 is_stmt 1 discriminator 4
 2008 00d2 FB68     		ldr	r3, [r7, #12]
 2009 00d4 BA68     		ldr	r2, [r7, #8]
 2010 00d6 5A43     		muls	r2, r3
 2011 00d8 1300     		movs	r3, r2
 2012 00da 9B00     		lsls	r3, r3, #2
 2013 00dc 9B18     		adds	r3, r3, r2
 2014 00de 1B01     		lsls	r3, r3, #4
 2015 00e0 9A1A     		subs	r2, r3, r2
 2016 00e2 FA23     		movs	r3, #250
 2017 00e4 9900     		lsls	r1, r3, #2
 2018 00e6 1000     		movs	r0, r2
ARM GAS  C:\Users\Jason\AppData\Local\Temp\cc7xyQyF.s 			page 64


 2019 00e8 FFF7FEFF 		bl	__aeabi_uidiv
 2020 00ec 0300     		movs	r3, r0
 2021 00ee 1C00     		movs	r4, r3
 2022 00f0 FB68     		ldr	r3, [r7, #12]
 2023 00f2 BA68     		ldr	r2, [r7, #8]
 2024 00f4 5343     		muls	r3, r2
 2025 00f6 7A68     		ldr	r2, [r7, #4]
 2026 00f8 5A43     		muls	r2, r3
 2027 00fa FA23     		movs	r3, #250
 2028 00fc 9900     		lsls	r1, r3, #2
 2029 00fe 1000     		movs	r0, r2
 2030 0100 FFF7FEFF 		bl	__aeabi_uidiv
 2031 0104 0300     		movs	r3, r0
 2032 0106 6343     		muls	r3, r4
 2033 0108 3149     		ldr	r1, .L145+36
 2034 010a 1800     		movs	r0, r3
 2035 010c FFF7FEFF 		bl	__aeabi_uidiv
 2036 0110 0300     		movs	r3, r0
 2037 0112 BB61     		str	r3, [r7, #24]
1549:Generated_Source\PSoC4/CyLib.c ****                 if (gmMin > 3u)
 2038              		.loc 1 1549 0 discriminator 4
 2039 0114 BB69     		ldr	r3, [r7, #24]
 2040 0116 032B     		cmp	r3, #3
 2041 0118 04D9     		bls	.L136
1550:Generated_Source\PSoC4/CyLib.c ****                 {
1551:Generated_Source\PSoC4/CyLib.c ****                     returnStatus = CYRET_BAD_PARAM;
 2042              		.loc 1 1551 0
 2043 011a 0123     		movs	r3, #1
 2044 011c FB62     		str	r3, [r7, #44]
1552:Generated_Source\PSoC4/CyLib.c ****                     gTrim = 0u;
 2045              		.loc 1 1552 0
 2046 011e 0023     		movs	r3, #0
 2047 0120 3B62     		str	r3, [r7, #32]
 2048 0122 0BE0     		b	.L137
 2049              	.L136:
1553:Generated_Source\PSoC4/CyLib.c ****                 }
1554:Generated_Source\PSoC4/CyLib.c ****                 else if (gmMin > 1u)
 2050              		.loc 1 1554 0
 2051 0124 BB69     		ldr	r3, [r7, #24]
 2052 0126 012B     		cmp	r3, #1
 2053 0128 02D9     		bls	.L138
1555:Generated_Source\PSoC4/CyLib.c ****                 {
1556:Generated_Source\PSoC4/CyLib.c ****                     gTrim = gmMin;
 2054              		.loc 1 1556 0
 2055 012a BB69     		ldr	r3, [r7, #24]
 2056 012c 3B62     		str	r3, [r7, #32]
 2057 012e 05E0     		b	.L137
 2058              	.L138:
1557:Generated_Source\PSoC4/CyLib.c ****                 }
1558:Generated_Source\PSoC4/CyLib.c ****                 else
1559:Generated_Source\PSoC4/CyLib.c ****                 {
1560:Generated_Source\PSoC4/CyLib.c ****                     gTrim = (gmMin == 1u) ? 0u : 1u;
 2059              		.loc 1 1560 0
 2060 0130 BB69     		ldr	r3, [r7, #24]
 2061 0132 013B     		subs	r3, r3, #1
 2062 0134 5A1E     		subs	r2, r3, #1
 2063 0136 9341     		sbcs	r3, r3, r2
ARM GAS  C:\Users\Jason\AppData\Local\Temp\cc7xyQyF.s 			page 65


 2064 0138 DBB2     		uxtb	r3, r3
 2065 013a 3B62     		str	r3, [r7, #32]
 2066              	.L137:
1561:Generated_Source\PSoC4/CyLib.c ****                 }
1562:Generated_Source\PSoC4/CyLib.c **** 
1563:Generated_Source\PSoC4/CyLib.c ****                 /* Calculate feedback resistor trim */
1564:Generated_Source\PSoC4/CyLib.c ****                 if (freq > CY_SYS_CLK_ECO_FREQ_FOR_FTRIM0)
 2067              		.loc 1 1564 0
 2068 013c FB68     		ldr	r3, [r7, #12]
 2069 013e 254A     		ldr	r2, .L145+40
 2070 0140 9342     		cmp	r3, r2
 2071 0142 02D9     		bls	.L139
1565:Generated_Source\PSoC4/CyLib.c ****                 {
1566:Generated_Source\PSoC4/CyLib.c ****                     rTrim = CY_SYS_CLK_ECO_FTRIM0;
 2072              		.loc 1 1566 0
 2073 0144 0023     		movs	r3, #0
 2074 0146 7B62     		str	r3, [r7, #36]
 2075 0148 0FE0     		b	.L140
 2076              	.L139:
1567:Generated_Source\PSoC4/CyLib.c ****                 }
1568:Generated_Source\PSoC4/CyLib.c ****                 else if (freq > CY_SYS_CLK_ECO_FREQ_FOR_FTRIM1)
 2077              		.loc 1 1568 0
 2078 014a FB68     		ldr	r3, [r7, #12]
 2079 014c 224A     		ldr	r2, .L145+44
 2080 014e 9342     		cmp	r3, r2
 2081 0150 02D9     		bls	.L141
1569:Generated_Source\PSoC4/CyLib.c ****                 {
1570:Generated_Source\PSoC4/CyLib.c ****                     rTrim = CY_SYS_CLK_ECO_FTRIM1;
 2082              		.loc 1 1570 0
 2083 0152 0123     		movs	r3, #1
 2084 0154 7B62     		str	r3, [r7, #36]
 2085 0156 08E0     		b	.L140
 2086              	.L141:
1571:Generated_Source\PSoC4/CyLib.c ****                 }
1572:Generated_Source\PSoC4/CyLib.c ****                 else if (freq > CY_SYS_CLK_ECO_FREQ_FOR_FTRIM2)
 2087              		.loc 1 1572 0
 2088 0158 FB68     		ldr	r3, [r7, #12]
 2089 015a 204A     		ldr	r2, .L145+48
 2090 015c 9342     		cmp	r3, r2
 2091 015e 02D9     		bls	.L142
1573:Generated_Source\PSoC4/CyLib.c ****                 {
1574:Generated_Source\PSoC4/CyLib.c ****                     rTrim = CY_SYS_CLK_ECO_FTRIM2;
 2092              		.loc 1 1574 0
 2093 0160 0223     		movs	r3, #2
 2094 0162 7B62     		str	r3, [r7, #36]
 2095 0164 01E0     		b	.L140
 2096              	.L142:
1575:Generated_Source\PSoC4/CyLib.c ****                 }
1576:Generated_Source\PSoC4/CyLib.c ****                 else
1577:Generated_Source\PSoC4/CyLib.c ****                 {
1578:Generated_Source\PSoC4/CyLib.c ****                     rTrim = CY_SYS_CLK_ECO_FTRIM3;
 2097              		.loc 1 1578 0
 2098 0166 0323     		movs	r3, #3
 2099 0168 7B62     		str	r3, [r7, #36]
 2100              	.L140:
1579:Generated_Source\PSoC4/CyLib.c ****                 }
1580:Generated_Source\PSoC4/CyLib.c **** 
ARM GAS  C:\Users\Jason\AppData\Local\Temp\cc7xyQyF.s 			page 66


1581:Generated_Source\PSoC4/CyLib.c ****                 /* Calculate filter frequency trim */
1582:Generated_Source\PSoC4/CyLib.c ****                 fTrim = rTrim;
 2101              		.loc 1 1582 0
 2102 016a 7B6A     		ldr	r3, [r7, #36]
 2103 016c 7B61     		str	r3, [r7, #20]
1583:Generated_Source\PSoC4/CyLib.c **** 
1584:Generated_Source\PSoC4/CyLib.c ****                 CySysClkConfigureEcoTrim(wDTrim, aTrim, fTrim, rTrim, gTrim);
 2104              		.loc 1 1584 0
 2105 016e 7C6A     		ldr	r4, [r7, #36]
 2106 0170 7A69     		ldr	r2, [r7, #20]
 2107 0172 B96A     		ldr	r1, [r7, #40]
 2108 0174 F869     		ldr	r0, [r7, #28]
 2109 0176 3B6A     		ldr	r3, [r7, #32]
 2110 0178 0093     		str	r3, [sp]
 2111 017a 2300     		movs	r3, r4
 2112 017c FFF7FEFF 		bl	CySysClkConfigureEcoTrim
1585:Generated_Source\PSoC4/CyLib.c **** 
1586:Generated_Source\PSoC4/CyLib.c ****                 /* Automatic Gain Control (AGC) enable */
1587:Generated_Source\PSoC4/CyLib.c ****                 if (maxAmplitude < 2u)
 2113              		.loc 1 1587 0
 2114 0180 3B68     		ldr	r3, [r7]
 2115 0182 012B     		cmp	r3, #1
 2116 0184 06D8     		bhi	.L143
1588:Generated_Source\PSoC4/CyLib.c ****                 {
1589:Generated_Source\PSoC4/CyLib.c ****                     /* The oscillation amplitude is controlled to the level selected by amplitude t
1590:Generated_Source\PSoC4/CyLib.c ****                     CY_SYS_CLK_ECO_CONFIG_REG |= CY_SYS_CLK_ECO_CONFIG_AGC_EN;
 2117              		.loc 1 1590 0
 2118 0186 164B     		ldr	r3, .L145+52
 2119 0188 154A     		ldr	r2, .L145+52
 2120 018a 1268     		ldr	r2, [r2]
 2121 018c 0221     		movs	r1, #2
 2122 018e 0A43     		orrs	r2, r1
 2123 0190 1A60     		str	r2, [r3]
 2124 0192 05E0     		b	.L123
 2125              	.L143:
1591:Generated_Source\PSoC4/CyLib.c ****                 }
1592:Generated_Source\PSoC4/CyLib.c ****                 else
1593:Generated_Source\PSoC4/CyLib.c ****                 {
1594:Generated_Source\PSoC4/CyLib.c ****                     /* The amplitude is not explicitly controlled and will grow until it saturates 
1595:Generated_Source\PSoC4/CyLib.c ****                     * supply rail (1.8V nom).
1596:Generated_Source\PSoC4/CyLib.c ****                     */
1597:Generated_Source\PSoC4/CyLib.c ****                     CY_SYS_CLK_ECO_CONFIG_REG &= (uint32) ~CY_SYS_CLK_ECO_CONFIG_AGC_EN;
 2126              		.loc 1 1597 0
 2127 0194 124B     		ldr	r3, .L145+52
 2128 0196 124A     		ldr	r2, .L145+52
 2129 0198 1268     		ldr	r2, [r2]
 2130 019a 0221     		movs	r1, #2
 2131 019c 8A43     		bics	r2, r1
 2132 019e 1A60     		str	r2, [r3]
 2133              	.L123:
1598:Generated_Source\PSoC4/CyLib.c ****                 }
1599:Generated_Source\PSoC4/CyLib.c ****             }
1600:Generated_Source\PSoC4/CyLib.c **** 
1601:Generated_Source\PSoC4/CyLib.c ****             return (returnStatus);
 2134              		.loc 1 1601 0
 2135 01a0 FB6A     		ldr	r3, [r7, #44]
1602:Generated_Source\PSoC4/CyLib.c ****         }
ARM GAS  C:\Users\Jason\AppData\Local\Temp\cc7xyQyF.s 			page 67


 2136              		.loc 1 1602 0
 2137 01a2 1800     		movs	r0, r3
 2138 01a4 BD46     		mov	sp, r7
 2139 01a6 0DB0     		add	sp, sp, #52
 2140              		@ sp needed
 2141 01a8 90BD     		pop	{r4, r7, pc}
 2142              	.L146:
 2143 01aa C046     		.align	2
 2144              	.L145:
 2145 01ac 9F0F0000 		.word	3999
 2146 01b0 35820000 		.word	33333
 2147 01b4 AF040000 		.word	1199
 2148 01b8 57020000 		.word	599
 2149 01bc BB020000 		.word	699
 2150 01c0 1F030000 		.word	799
 2151 01c4 83030000 		.word	899
 2152 01c8 7D040000 		.word	1149
 2153 01cc FA040000 		.word	1274
 2154 01d0 8074D21A 		.word	450000000
 2155 01d4 30750000 		.word	30000
 2156 01d8 C05D0000 		.word	24000
 2157 01dc 68420000 		.word	17000
 2158 01e0 08000C40 		.word	1074528264
 2159              		.cfi_endproc
 2160              	.LFE18:
 2161              		.size	CySysClkConfigureEcoDrive, .-CySysClkConfigureEcoDrive
 2162              		.section	.text.CySysClkPllStart,"ax",%progbits
 2163              		.align	2
 2164              		.global	CySysClkPllStart
 2165              		.code	16
 2166              		.thumb_func
 2167              		.type	CySysClkPllStart, %function
 2168              	CySysClkPllStart:
 2169              	.LFB19:
1603:Generated_Source\PSoC4/CyLib.c **** 
1604:Generated_Source\PSoC4/CyLib.c ****     #endif /* CY_IP_ECO_BLESS */
1605:Generated_Source\PSoC4/CyLib.c **** 
1606:Generated_Source\PSoC4/CyLib.c **** #endif /* (CY_IP_ECO) */
1607:Generated_Source\PSoC4/CyLib.c **** 
1608:Generated_Source\PSoC4/CyLib.c **** 
1609:Generated_Source\PSoC4/CyLib.c **** #if (CY_IP_PLL)
1610:Generated_Source\PSoC4/CyLib.c ****     /*******************************************************************************
1611:Generated_Source\PSoC4/CyLib.c ****     * Function Name: CySysClkPllStart
1612:Generated_Source\PSoC4/CyLib.c ****     ****************************************************************************//**
1613:Generated_Source\PSoC4/CyLib.c ****     *
1614:Generated_Source\PSoC4/CyLib.c ****     * Enables the PLL. Optionally waits for it to become stable. Waits at least
1615:Generated_Source\PSoC4/CyLib.c ****     * 250 us or until it is detected that the PLL is stable.
1616:Generated_Source\PSoC4/CyLib.c ****     *
1617:Generated_Source\PSoC4/CyLib.c ****     * Clears the unlock occurred status bit by calling CySysClkPllGetUnlockStatus(),
1618:Generated_Source\PSoC4/CyLib.c ****     * once the PLL is locked if the wait parameter is 1).
1619:Generated_Source\PSoC4/CyLib.c ****     *
1620:Generated_Source\PSoC4/CyLib.c ****     * This API is available only for PSoC 4200L / 4100S with PLL devices.
1621:Generated_Source\PSoC4/CyLib.c ****     *
1622:Generated_Source\PSoC4/CyLib.c ****     * \param PLL:
1623:Generated_Source\PSoC4/CyLib.c ****     * 0   PLL#0
1624:Generated_Source\PSoC4/CyLib.c ****     * 1   PLL#1 (available only for PSoC 4200L)
1625:Generated_Source\PSoC4/CyLib.c ****     *
ARM GAS  C:\Users\Jason\AppData\Local\Temp\cc7xyQyF.s 			page 68


1626:Generated_Source\PSoC4/CyLib.c ****     * \param wait:
1627:Generated_Source\PSoC4/CyLib.c ****     * 0 - Return immediately after configuration.
1628:Generated_Source\PSoC4/CyLib.c ****     * 1 - Wait for PLL lock or timeout. This API shall use the CyDelayUs() to
1629:Generated_Source\PSoC4/CyLib.c ****     * implement the timeout feature.
1630:Generated_Source\PSoC4/CyLib.c ****     *
1631:Generated_Source\PSoC4/CyLib.c ****     * \return CYRET_SUCCESS Completed successfully.
1632:Generated_Source\PSoC4/CyLib.c ****     * \return CYRET_TIMEOUT The timeout occurred without detecting a stable clock.
1633:Generated_Source\PSoC4/CyLib.c ****     * If the input source of the clock is jittery, then the lock indication may
1634:Generated_Source\PSoC4/CyLib.c ****     * not occur. However, after the timeout has expired, the generated PLL clock can
1635:Generated_Source\PSoC4/CyLib.c ****     * still be used.
1636:Generated_Source\PSoC4/CyLib.c ****     * \return CYRET_BAD_PARAM - Either the PLL or wait parameter is invalid.
1637:Generated_Source\PSoC4/CyLib.c ****     *
1638:Generated_Source\PSoC4/CyLib.c ****     *******************************************************************************/
1639:Generated_Source\PSoC4/CyLib.c ****     cystatus CySysClkPllStart(uint32 pll, uint32 wait)
1640:Generated_Source\PSoC4/CyLib.c ****     {
 2170              		.loc 1 1640 0
 2171              		.cfi_startproc
 2172              		@ args = 0, pretend = 0, frame = 24
 2173              		@ frame_needed = 1, uses_anonymous_args = 0
 2174 0000 90B5     		push	{r4, r7, lr}
 2175              		.cfi_def_cfa_offset 12
 2176              		.cfi_offset 4, -12
 2177              		.cfi_offset 7, -8
 2178              		.cfi_offset 14, -4
 2179 0002 87B0     		sub	sp, sp, #28
 2180              		.cfi_def_cfa_offset 40
 2181 0004 00AF     		add	r7, sp, #0
 2182              		.cfi_def_cfa_register 7
 2183 0006 7860     		str	r0, [r7, #4]
 2184 0008 3960     		str	r1, [r7]
1641:Generated_Source\PSoC4/CyLib.c ****         uint32 counts = CY_SYS_CLK_PLL_MAX_STARTUP_US;
 2185              		.loc 1 1641 0
 2186 000a FF23     		movs	r3, #255
 2187 000c 7B61     		str	r3, [r7, #20]
1642:Generated_Source\PSoC4/CyLib.c ****         uint8  interruptState;
1643:Generated_Source\PSoC4/CyLib.c ****         cystatus returnStatus = CYRET_SUCCESS;
 2188              		.loc 1 1643 0
 2189 000e 0023     		movs	r3, #0
 2190 0010 3B61     		str	r3, [r7, #16]
1644:Generated_Source\PSoC4/CyLib.c **** 
1645:Generated_Source\PSoC4/CyLib.c ****         if((pll < CY_IP_PLL_NR) && (wait <= 1u))
 2191              		.loc 1 1645 0
 2192 0012 7B68     		ldr	r3, [r7, #4]
 2193 0014 012B     		cmp	r3, #1
 2194 0016 70D8     		bhi	.L148
 2195              		.loc 1 1645 0 is_stmt 0 discriminator 1
 2196 0018 3B68     		ldr	r3, [r7]
 2197 001a 012B     		cmp	r3, #1
 2198 001c 6DD8     		bhi	.L148
1646:Generated_Source\PSoC4/CyLib.c ****         {
1647:Generated_Source\PSoC4/CyLib.c ****             interruptState = CyEnterCriticalSection();
 2199              		.loc 1 1647 0 is_stmt 1
 2200 001e 0F23     		movs	r3, #15
 2201 0020 FC18     		adds	r4, r7, r3
 2202 0022 FFF7FEFF 		bl	CyEnterCriticalSection
 2203 0026 0300     		movs	r3, r0
 2204 0028 2370     		strb	r3, [r4]
ARM GAS  C:\Users\Jason\AppData\Local\Temp\cc7xyQyF.s 			page 69


1648:Generated_Source\PSoC4/CyLib.c **** 
1649:Generated_Source\PSoC4/CyLib.c ****             /* Isolate PLL outputs */
1650:Generated_Source\PSoC4/CyLib.c ****             CY_SYS_CLK_PLL_BASE.pll[pll].config &= (uint32) ~CY_SYS_CLK_PLL_CONFIG_ISOLATE;
 2205              		.loc 1 1650 0
 2206 002a 3748     		ldr	r0, .L155
 2207 002c 3649     		ldr	r1, .L155
 2208 002e 7A68     		ldr	r2, [r7, #4]
 2209 0030 1300     		movs	r3, r2
 2210 0032 5B00     		lsls	r3, r3, #1
 2211 0034 9B18     		adds	r3, r3, r2
 2212 0036 9B00     		lsls	r3, r3, #2
 2213 0038 5B58     		ldr	r3, [r3, r1]
 2214 003a 344A     		ldr	r2, .L155+4
 2215 003c 1340     		ands	r3, r2
 2216 003e 1900     		movs	r1, r3
 2217 0040 7A68     		ldr	r2, [r7, #4]
 2218 0042 1300     		movs	r3, r2
 2219 0044 5B00     		lsls	r3, r3, #1
 2220 0046 9B18     		adds	r3, r3, r2
 2221 0048 9B00     		lsls	r3, r3, #2
 2222 004a 1950     		str	r1, [r3, r0]
1651:Generated_Source\PSoC4/CyLib.c **** 
1652:Generated_Source\PSoC4/CyLib.c ****             /* Enable PLL */
1653:Generated_Source\PSoC4/CyLib.c ****             CY_SYS_CLK_PLL_BASE.pll[pll].config |= CY_SYS_CLK_PLL_CONFIG_ENABLE;
 2223              		.loc 1 1653 0
 2224 004c 2E48     		ldr	r0, .L155
 2225 004e 2E49     		ldr	r1, .L155
 2226 0050 7A68     		ldr	r2, [r7, #4]
 2227 0052 1300     		movs	r3, r2
 2228 0054 5B00     		lsls	r3, r3, #1
 2229 0056 9B18     		adds	r3, r3, r2
 2230 0058 9B00     		lsls	r3, r3, #2
 2231 005a 5B58     		ldr	r3, [r3, r1]
 2232 005c 8022     		movs	r2, #128
 2233 005e 1206     		lsls	r2, r2, #24
 2234 0060 1A43     		orrs	r2, r3
 2235 0062 1100     		movs	r1, r2
 2236 0064 7A68     		ldr	r2, [r7, #4]
 2237 0066 1300     		movs	r3, r2
 2238 0068 5B00     		lsls	r3, r3, #1
 2239 006a 9B18     		adds	r3, r3, r2
 2240 006c 9B00     		lsls	r3, r3, #2
 2241 006e 1950     		str	r1, [r3, r0]
1654:Generated_Source\PSoC4/CyLib.c **** 
1655:Generated_Source\PSoC4/CyLib.c ****             CyExitCriticalSection(interruptState);
 2242              		.loc 1 1655 0
 2243 0070 0F23     		movs	r3, #15
 2244 0072 FB18     		adds	r3, r7, r3
 2245 0074 1B78     		ldrb	r3, [r3]
 2246 0076 1800     		movs	r0, r3
 2247 0078 FFF7FEFF 		bl	CyExitCriticalSection
1656:Generated_Source\PSoC4/CyLib.c **** 
1657:Generated_Source\PSoC4/CyLib.c ****             /* De-isolate >= CY_SYS_CLK_PLL_MIN_STARTUP_US after PLL enabled */
1658:Generated_Source\PSoC4/CyLib.c ****             CyDelayUs(CY_SYS_CLK_PLL_MIN_STARTUP_US);
 2248              		.loc 1 1658 0
 2249 007c 0520     		movs	r0, #5
 2250 007e FFF7FEFF 		bl	CyDelayUs
ARM GAS  C:\Users\Jason\AppData\Local\Temp\cc7xyQyF.s 			page 70


1659:Generated_Source\PSoC4/CyLib.c ****             interruptState = CyEnterCriticalSection();
 2251              		.loc 1 1659 0
 2252 0082 0F23     		movs	r3, #15
 2253 0084 FC18     		adds	r4, r7, r3
 2254 0086 FFF7FEFF 		bl	CyEnterCriticalSection
 2255 008a 0300     		movs	r3, r0
 2256 008c 2370     		strb	r3, [r4]
1660:Generated_Source\PSoC4/CyLib.c ****             CY_SYS_CLK_PLL_BASE.pll[pll].config |= CY_SYS_CLK_PLL_CONFIG_ISOLATE;
 2257              		.loc 1 1660 0
 2258 008e 1E48     		ldr	r0, .L155
 2259 0090 1D49     		ldr	r1, .L155
 2260 0092 7A68     		ldr	r2, [r7, #4]
 2261 0094 1300     		movs	r3, r2
 2262 0096 5B00     		lsls	r3, r3, #1
 2263 0098 9B18     		adds	r3, r3, r2
 2264 009a 9B00     		lsls	r3, r3, #2
 2265 009c 5B58     		ldr	r3, [r3, r1]
 2266 009e 8022     		movs	r2, #128
 2267 00a0 D205     		lsls	r2, r2, #23
 2268 00a2 1A43     		orrs	r2, r3
 2269 00a4 1100     		movs	r1, r2
 2270 00a6 7A68     		ldr	r2, [r7, #4]
 2271 00a8 1300     		movs	r3, r2
 2272 00aa 5B00     		lsls	r3, r3, #1
 2273 00ac 9B18     		adds	r3, r3, r2
 2274 00ae 9B00     		lsls	r3, r3, #2
 2275 00b0 1950     		str	r1, [r3, r0]
1661:Generated_Source\PSoC4/CyLib.c ****             CyExitCriticalSection(interruptState);
 2276              		.loc 1 1661 0
 2277 00b2 0F23     		movs	r3, #15
 2278 00b4 FB18     		adds	r3, r7, r3
 2279 00b6 1B78     		ldrb	r3, [r3]
 2280 00b8 1800     		movs	r0, r3
 2281 00ba FFF7FEFF 		bl	CyExitCriticalSection
1662:Generated_Source\PSoC4/CyLib.c **** 
1663:Generated_Source\PSoC4/CyLib.c ****             if(wait != 0u)
 2282              		.loc 1 1663 0
 2283 00be 3B68     		ldr	r3, [r7]
 2284 00c0 002B     		cmp	r3, #0
 2285 00c2 1CD0     		beq	.L153
1664:Generated_Source\PSoC4/CyLib.c ****             {
1665:Generated_Source\PSoC4/CyLib.c ****                 returnStatus = CYRET_TIMEOUT;
 2286              		.loc 1 1665 0
 2287 00c4 1023     		movs	r3, #16
 2288 00c6 3B61     		str	r3, [r7, #16]
1666:Generated_Source\PSoC4/CyLib.c **** 
1667:Generated_Source\PSoC4/CyLib.c ****                 while(0u != counts)
 2289              		.loc 1 1667 0
 2290 00c8 13E0     		b	.L150
 2291              	.L152:
1668:Generated_Source\PSoC4/CyLib.c ****                 {
1669:Generated_Source\PSoC4/CyLib.c **** 
1670:Generated_Source\PSoC4/CyLib.c ****                     if(0u != CySysClkPllGetLockStatus(pll))
 2292              		.loc 1 1670 0
 2293 00ca 7B68     		ldr	r3, [r7, #4]
 2294 00cc 1800     		movs	r0, r3
 2295 00ce FFF7FEFF 		bl	CySysClkPllGetLockStatus
ARM GAS  C:\Users\Jason\AppData\Local\Temp\cc7xyQyF.s 			page 71


 2296 00d2 031E     		subs	r3, r0, #0
 2297 00d4 07D0     		beq	.L151
1671:Generated_Source\PSoC4/CyLib.c ****                     {
1672:Generated_Source\PSoC4/CyLib.c ****                         returnStatus = CYRET_SUCCESS;
 2298              		.loc 1 1672 0
 2299 00d6 0023     		movs	r3, #0
 2300 00d8 3B61     		str	r3, [r7, #16]
1673:Generated_Source\PSoC4/CyLib.c ****                         (void) CySysClkPllGetUnlockStatus(pll);
 2301              		.loc 1 1673 0
 2302 00da 7B68     		ldr	r3, [r7, #4]
 2303 00dc 1800     		movs	r0, r3
 2304 00de FFF7FEFF 		bl	CySysClkPllGetUnlockStatus
1674:Generated_Source\PSoC4/CyLib.c ****                         break;
 2305              		.loc 1 1674 0
 2306 00e2 C046     		nop
1663:Generated_Source\PSoC4/CyLib.c ****             {
 2307              		.loc 1 1663 0
 2308 00e4 0BE0     		b	.L153
 2309              	.L151:
1675:Generated_Source\PSoC4/CyLib.c ****                     }
1676:Generated_Source\PSoC4/CyLib.c **** 
1677:Generated_Source\PSoC4/CyLib.c ****                     CyDelayUs(1u);
 2310              		.loc 1 1677 0
 2311 00e6 0120     		movs	r0, #1
 2312 00e8 FFF7FEFF 		bl	CyDelayUs
1678:Generated_Source\PSoC4/CyLib.c ****                     counts--;
 2313              		.loc 1 1678 0
 2314 00ec 7B69     		ldr	r3, [r7, #20]
 2315 00ee 013B     		subs	r3, r3, #1
 2316 00f0 7B61     		str	r3, [r7, #20]
 2317              	.L150:
1667:Generated_Source\PSoC4/CyLib.c ****                 {
 2318              		.loc 1 1667 0
 2319 00f2 7B69     		ldr	r3, [r7, #20]
 2320 00f4 002B     		cmp	r3, #0
 2321 00f6 E8D1     		bne	.L152
1663:Generated_Source\PSoC4/CyLib.c ****             {
 2322              		.loc 1 1663 0
 2323 00f8 01E0     		b	.L153
 2324              	.L148:
1679:Generated_Source\PSoC4/CyLib.c ****                 }
1680:Generated_Source\PSoC4/CyLib.c ****             }
1681:Generated_Source\PSoC4/CyLib.c ****         }
1682:Generated_Source\PSoC4/CyLib.c ****         else
1683:Generated_Source\PSoC4/CyLib.c ****         {
1684:Generated_Source\PSoC4/CyLib.c ****             returnStatus = CYRET_BAD_PARAM;
 2325              		.loc 1 1684 0
 2326 00fa 0123     		movs	r3, #1
 2327 00fc 3B61     		str	r3, [r7, #16]
 2328              	.L153:
1685:Generated_Source\PSoC4/CyLib.c ****         }
1686:Generated_Source\PSoC4/CyLib.c **** 
1687:Generated_Source\PSoC4/CyLib.c ****         return (returnStatus);
 2329              		.loc 1 1687 0
 2330 00fe 3B69     		ldr	r3, [r7, #16]
1688:Generated_Source\PSoC4/CyLib.c ****     }
 2331              		.loc 1 1688 0
ARM GAS  C:\Users\Jason\AppData\Local\Temp\cc7xyQyF.s 			page 72


 2332 0100 1800     		movs	r0, r3
 2333 0102 BD46     		mov	sp, r7
 2334 0104 07B0     		add	sp, sp, #28
 2335              		@ sp needed
 2336 0106 90BD     		pop	{r4, r7, pc}
 2337              	.L156:
 2338              		.align	2
 2339              	.L155:
 2340 0108 14000C40 		.word	1074528276
 2341 010c FFFFFFBF 		.word	-1073741825
 2342              		.cfi_endproc
 2343              	.LFE19:
 2344              		.size	CySysClkPllStart, .-CySysClkPllStart
 2345              		.section	.text.CySysClkPllGetLockStatus,"ax",%progbits
 2346              		.align	2
 2347              		.global	CySysClkPllGetLockStatus
 2348              		.code	16
 2349              		.thumb_func
 2350              		.type	CySysClkPllGetLockStatus, %function
 2351              	CySysClkPllGetLockStatus:
 2352              	.LFB20:
1689:Generated_Source\PSoC4/CyLib.c **** 
1690:Generated_Source\PSoC4/CyLib.c **** 
1691:Generated_Source\PSoC4/CyLib.c ****     /*******************************************************************************
1692:Generated_Source\PSoC4/CyLib.c ****     * Function Name: CySysClkPllGetLockStatus
1693:Generated_Source\PSoC4/CyLib.c ****     ****************************************************************************//**
1694:Generated_Source\PSoC4/CyLib.c ****     *
1695:Generated_Source\PSoC4/CyLib.c ****     * Returns non-zero if the output of the specified PLL output is locked.
1696:Generated_Source\PSoC4/CyLib.c ****     *
1697:Generated_Source\PSoC4/CyLib.c ****     * This API is available only for PSoC 4200L / 4100S with PLL devices.
1698:Generated_Source\PSoC4/CyLib.c ****     *
1699:Generated_Source\PSoC4/CyLib.c ****     * PLL:
1700:Generated_Source\PSoC4/CyLib.c ****     *  0   PLL#0
1701:Generated_Source\PSoC4/CyLib.c ****     *  1   PLL#1 (available only for PSoC 4200L)
1702:Generated_Source\PSoC4/CyLib.c ****     *
1703:Generated_Source\PSoC4/CyLib.c ****     * \return A non-zero value when the specified PLL is locked.
1704:Generated_Source\PSoC4/CyLib.c ****     *
1705:Generated_Source\PSoC4/CyLib.c ****     *******************************************************************************/
1706:Generated_Source\PSoC4/CyLib.c ****     uint32 CySysClkPllGetLockStatus(uint32 pll)
1707:Generated_Source\PSoC4/CyLib.c ****     {
 2353              		.loc 1 1707 0
 2354              		.cfi_startproc
 2355              		@ args = 0, pretend = 0, frame = 16
 2356              		@ frame_needed = 1, uses_anonymous_args = 0
 2357 0000 90B5     		push	{r4, r7, lr}
 2358              		.cfi_def_cfa_offset 12
 2359              		.cfi_offset 4, -12
 2360              		.cfi_offset 7, -8
 2361              		.cfi_offset 14, -4
 2362 0002 85B0     		sub	sp, sp, #20
 2363              		.cfi_def_cfa_offset 32
 2364 0004 00AF     		add	r7, sp, #0
 2365              		.cfi_def_cfa_register 7
 2366 0006 7860     		str	r0, [r7, #4]
1708:Generated_Source\PSoC4/CyLib.c ****         uint8  interruptState;
1709:Generated_Source\PSoC4/CyLib.c ****         uint32 returnStatus;
1710:Generated_Source\PSoC4/CyLib.c **** 
ARM GAS  C:\Users\Jason\AppData\Local\Temp\cc7xyQyF.s 			page 73


1711:Generated_Source\PSoC4/CyLib.c ****         CYASSERT(pll < CY_IP_PLL_NR);
 2367              		.loc 1 1711 0
 2368 0008 7B68     		ldr	r3, [r7, #4]
 2369 000a 012B     		cmp	r3, #1
 2370 000c 02D9     		bls	.L158
 2371              		.loc 1 1711 0 is_stmt 0 discriminator 1
 2372 000e 0020     		movs	r0, #0
 2373 0010 FFF7FEFF 		bl	CyHalt
 2374              	.L158:
1712:Generated_Source\PSoC4/CyLib.c **** 
1713:Generated_Source\PSoC4/CyLib.c ****         interruptState = CyEnterCriticalSection();
 2375              		.loc 1 1713 0 is_stmt 1
 2376 0014 0B23     		movs	r3, #11
 2377 0016 FC18     		adds	r4, r7, r3
 2378 0018 FFF7FEFF 		bl	CyEnterCriticalSection
 2379 001c 0300     		movs	r3, r0
 2380 001e 2370     		strb	r3, [r4]
1714:Generated_Source\PSoC4/CyLib.c **** 
1715:Generated_Source\PSoC4/CyLib.c ****         /* PLL is locked if reported so for two consecutive read. */
1716:Generated_Source\PSoC4/CyLib.c ****         returnStatus = CY_SYS_CLK_PLL_BASE.pll[pll].status & CY_SYS_CLK_PLL_STATUS_LOCKED;
 2381              		.loc 1 1716 0
 2382 0020 1249     		ldr	r1, .L161
 2383 0022 7A68     		ldr	r2, [r7, #4]
 2384 0024 1300     		movs	r3, r2
 2385 0026 5B00     		lsls	r3, r3, #1
 2386 0028 9B18     		adds	r3, r3, r2
 2387 002a 9B00     		lsls	r3, r3, #2
 2388 002c CB18     		adds	r3, r1, r3
 2389 002e 0433     		adds	r3, r3, #4
 2390 0030 1B68     		ldr	r3, [r3]
 2391 0032 0122     		movs	r2, #1
 2392 0034 1340     		ands	r3, r2
 2393 0036 FB60     		str	r3, [r7, #12]
1717:Generated_Source\PSoC4/CyLib.c ****         if(0u != returnStatus)
 2394              		.loc 1 1717 0
 2395 0038 FB68     		ldr	r3, [r7, #12]
 2396 003a 002B     		cmp	r3, #0
 2397 003c 0BD0     		beq	.L159
1718:Generated_Source\PSoC4/CyLib.c ****         {
1719:Generated_Source\PSoC4/CyLib.c ****             returnStatus = CY_SYS_CLK_PLL_BASE.pll[pll].status & CY_SYS_CLK_PLL_STATUS_LOCKED;
 2398              		.loc 1 1719 0
 2399 003e 0B49     		ldr	r1, .L161
 2400 0040 7A68     		ldr	r2, [r7, #4]
 2401 0042 1300     		movs	r3, r2
 2402 0044 5B00     		lsls	r3, r3, #1
 2403 0046 9B18     		adds	r3, r3, r2
 2404 0048 9B00     		lsls	r3, r3, #2
 2405 004a CB18     		adds	r3, r1, r3
 2406 004c 0433     		adds	r3, r3, #4
 2407 004e 1B68     		ldr	r3, [r3]
 2408 0050 0122     		movs	r2, #1
 2409 0052 1340     		ands	r3, r2
 2410 0054 FB60     		str	r3, [r7, #12]
 2411              	.L159:
1720:Generated_Source\PSoC4/CyLib.c ****         }
1721:Generated_Source\PSoC4/CyLib.c **** 
1722:Generated_Source\PSoC4/CyLib.c ****         CyExitCriticalSection(interruptState);
ARM GAS  C:\Users\Jason\AppData\Local\Temp\cc7xyQyF.s 			page 74


 2412              		.loc 1 1722 0
 2413 0056 0B23     		movs	r3, #11
 2414 0058 FB18     		adds	r3, r7, r3
 2415 005a 1B78     		ldrb	r3, [r3]
 2416 005c 1800     		movs	r0, r3
 2417 005e FFF7FEFF 		bl	CyExitCriticalSection
1723:Generated_Source\PSoC4/CyLib.c **** 
1724:Generated_Source\PSoC4/CyLib.c ****         return (returnStatus);
 2418              		.loc 1 1724 0
 2419 0062 FB68     		ldr	r3, [r7, #12]
1725:Generated_Source\PSoC4/CyLib.c ****     }
 2420              		.loc 1 1725 0
 2421 0064 1800     		movs	r0, r3
 2422 0066 BD46     		mov	sp, r7
 2423 0068 05B0     		add	sp, sp, #20
 2424              		@ sp needed
 2425 006a 90BD     		pop	{r4, r7, pc}
 2426              	.L162:
 2427              		.align	2
 2428              	.L161:
 2429 006c 14000C40 		.word	1074528276
 2430              		.cfi_endproc
 2431              	.LFE20:
 2432              		.size	CySysClkPllGetLockStatus, .-CySysClkPllGetLockStatus
 2433              		.section	.text.CySysClkPllStop,"ax",%progbits
 2434              		.align	2
 2435              		.global	CySysClkPllStop
 2436              		.code	16
 2437              		.thumb_func
 2438              		.type	CySysClkPllStop, %function
 2439              	CySysClkPllStop:
 2440              	.LFB21:
1726:Generated_Source\PSoC4/CyLib.c **** 
1727:Generated_Source\PSoC4/CyLib.c ****     /*******************************************************************************
1728:Generated_Source\PSoC4/CyLib.c ****     * Function Name: CySysClkPllStop
1729:Generated_Source\PSoC4/CyLib.c ****     ****************************************************************************//**
1730:Generated_Source\PSoC4/CyLib.c ****     *
1731:Generated_Source\PSoC4/CyLib.c ****     * Disables the PLL.
1732:Generated_Source\PSoC4/CyLib.c ****     *
1733:Generated_Source\PSoC4/CyLib.c ****     * Ensures that either PLL is not the source of HFCLK before it is disabled,
1734:Generated_Source\PSoC4/CyLib.c ****     * otherwise, the CPU will halt.
1735:Generated_Source\PSoC4/CyLib.c ****     *
1736:Generated_Source\PSoC4/CyLib.c ****     * This API is available only for PSoC 4200L / 4100S with PLL devices.
1737:Generated_Source\PSoC4/CyLib.c ****     *
1738:Generated_Source\PSoC4/CyLib.c ****     * PLL:
1739:Generated_Source\PSoC4/CyLib.c ****     *  0   PLL#0
1740:Generated_Source\PSoC4/CyLib.c ****     *  1   PLL#1 (available only for PSoC 4200L)
1741:Generated_Source\PSoC4/CyLib.c ****     *
1742:Generated_Source\PSoC4/CyLib.c ****     *******************************************************************************/
1743:Generated_Source\PSoC4/CyLib.c ****     void CySysClkPllStop(uint32 pll)
1744:Generated_Source\PSoC4/CyLib.c ****     {
 2441              		.loc 1 1744 0
 2442              		.cfi_startproc
 2443              		@ args = 0, pretend = 0, frame = 16
 2444              		@ frame_needed = 1, uses_anonymous_args = 0
 2445 0000 90B5     		push	{r4, r7, lr}
 2446              		.cfi_def_cfa_offset 12
ARM GAS  C:\Users\Jason\AppData\Local\Temp\cc7xyQyF.s 			page 75


 2447              		.cfi_offset 4, -12
 2448              		.cfi_offset 7, -8
 2449              		.cfi_offset 14, -4
 2450 0002 85B0     		sub	sp, sp, #20
 2451              		.cfi_def_cfa_offset 32
 2452 0004 00AF     		add	r7, sp, #0
 2453              		.cfi_def_cfa_register 7
 2454 0006 7860     		str	r0, [r7, #4]
1745:Generated_Source\PSoC4/CyLib.c ****         uint8  interruptState;
1746:Generated_Source\PSoC4/CyLib.c **** 
1747:Generated_Source\PSoC4/CyLib.c ****         if (pll < CY_IP_PLL_NR)
 2455              		.loc 1 1747 0
 2456 0008 7B68     		ldr	r3, [r7, #4]
 2457 000a 012B     		cmp	r3, #1
 2458 000c 1BD8     		bhi	.L165
1748:Generated_Source\PSoC4/CyLib.c ****         {
1749:Generated_Source\PSoC4/CyLib.c ****             interruptState = CyEnterCriticalSection();
 2459              		.loc 1 1749 0
 2460 000e 0F23     		movs	r3, #15
 2461 0010 FC18     		adds	r4, r7, r3
 2462 0012 FFF7FEFF 		bl	CyEnterCriticalSection
 2463 0016 0300     		movs	r3, r0
 2464 0018 2370     		strb	r3, [r4]
1750:Generated_Source\PSoC4/CyLib.c ****             CY_SYS_CLK_PLL_BASE.pll[pll].config &= (uint32) ~(CY_SYS_CLK_PLL_CONFIG_ISOLATE | CY_SY
 2465              		.loc 1 1750 0
 2466 001a 0D48     		ldr	r0, .L166
 2467 001c 0C49     		ldr	r1, .L166
 2468 001e 7A68     		ldr	r2, [r7, #4]
 2469 0020 1300     		movs	r3, r2
 2470 0022 5B00     		lsls	r3, r3, #1
 2471 0024 9B18     		adds	r3, r3, r2
 2472 0026 9B00     		lsls	r3, r3, #2
 2473 0028 5B58     		ldr	r3, [r3, r1]
 2474 002a 9B00     		lsls	r3, r3, #2
 2475 002c 9908     		lsrs	r1, r3, #2
 2476 002e 7A68     		ldr	r2, [r7, #4]
 2477 0030 1300     		movs	r3, r2
 2478 0032 5B00     		lsls	r3, r3, #1
 2479 0034 9B18     		adds	r3, r3, r2
 2480 0036 9B00     		lsls	r3, r3, #2
 2481 0038 1950     		str	r1, [r3, r0]
1751:Generated_Source\PSoC4/CyLib.c ****             CyExitCriticalSection(interruptState);
 2482              		.loc 1 1751 0
 2483 003a 0F23     		movs	r3, #15
 2484 003c FB18     		adds	r3, r7, r3
 2485 003e 1B78     		ldrb	r3, [r3]
 2486 0040 1800     		movs	r0, r3
 2487 0042 FFF7FEFF 		bl	CyExitCriticalSection
 2488              	.L165:
1752:Generated_Source\PSoC4/CyLib.c ****         }
1753:Generated_Source\PSoC4/CyLib.c ****     }
 2489              		.loc 1 1753 0
 2490 0046 C046     		nop
 2491 0048 BD46     		mov	sp, r7
 2492 004a 05B0     		add	sp, sp, #20
 2493              		@ sp needed
 2494 004c 90BD     		pop	{r4, r7, pc}
ARM GAS  C:\Users\Jason\AppData\Local\Temp\cc7xyQyF.s 			page 76


 2495              	.L167:
 2496 004e C046     		.align	2
 2497              	.L166:
 2498 0050 14000C40 		.word	1074528276
 2499              		.cfi_endproc
 2500              	.LFE21:
 2501              		.size	CySysClkPllStop, .-CySysClkPllStop
 2502              		.section	.text.CySysClkPllSetPQ,"ax",%progbits
 2503              		.align	2
 2504              		.global	CySysClkPllSetPQ
 2505              		.code	16
 2506              		.thumb_func
 2507              		.type	CySysClkPllSetPQ, %function
 2508              	CySysClkPllSetPQ:
 2509              	.LFB22:
1754:Generated_Source\PSoC4/CyLib.c **** 
1755:Generated_Source\PSoC4/CyLib.c **** 
1756:Generated_Source\PSoC4/CyLib.c ****     /*******************************************************************************
1757:Generated_Source\PSoC4/CyLib.c ****     * Function Name: CySysClkPllSetPQ
1758:Generated_Source\PSoC4/CyLib.c ****     ****************************************************************************//**
1759:Generated_Source\PSoC4/CyLib.c ****     *
1760:Generated_Source\PSoC4/CyLib.c ****     * Sets feedback (P) and reference the (Q) divider value. This API also sets the
1761:Generated_Source\PSoC4/CyLib.c ****     * programmable charge pump current value. Note that the PLL has to be disabled
1762:Generated_Source\PSoC4/CyLib.c ****     * before calling this API. If this function is called while any PLL is sourcing,
1763:Generated_Source\PSoC4/CyLib.c ****     * the SYSCLK will return an error.
1764:Generated_Source\PSoC4/CyLib.c ****     *
1765:Generated_Source\PSoC4/CyLib.c ****     * The PLL must not be the system clock source when calling this function. The
1766:Generated_Source\PSoC4/CyLib.c ****     * PLL output will glitch during this function call.
1767:Generated_Source\PSoC4/CyLib.c ****     *
1768:Generated_Source\PSoC4/CyLib.c ****     * This API is available only for PSoC 4200L / 4100S with PLL devices.
1769:Generated_Source\PSoC4/CyLib.c ****     *
1770:Generated_Source\PSoC4/CyLib.c ****     * \param PLL:
1771:Generated_Source\PSoC4/CyLib.c ****     *  0   PLL#0
1772:Generated_Source\PSoC4/CyLib.c ****     *  1   PLL#1 (available only for PSoC 4200L)
1773:Generated_Source\PSoC4/CyLib.c ****     *
1774:Generated_Source\PSoC4/CyLib.c ****     * \param feedback The P divider. Range 4 - 259. Control bits for the feedback
1775:Generated_Source\PSoC4/CyLib.c ****     * divider.
1776:Generated_Source\PSoC4/CyLib.c ****     *
1777:Generated_Source\PSoC4/CyLib.c ****     * \param reference The Q divider. Range 1 - 64. Divide by the reference.
1778:Generated_Source\PSoC4/CyLib.c ****     *
1779:Generated_Source\PSoC4/CyLib.c ****     * \param current Charge the pump current in uA. The 2 uA for output frequencies
1780:Generated_Source\PSoC4/CyLib.c ****     * of 67 MHz or less, and 3 uA for higher output frequencies. The default
1781:Generated_Source\PSoC4/CyLib.c ****     * value is 2 uA.
1782:Generated_Source\PSoC4/CyLib.c ****     *
1783:Generated_Source\PSoC4/CyLib.c ****     * \return CYRET_SUCCESS Completed successfully.
1784:Generated_Source\PSoC4/CyLib.c ****     * \return CYRET_BAD_PARAM The parameters are out of range or the specified PLL
1785:Generated_Source\PSoC4/CyLib.c ****     * sources the system clock.
1786:Generated_Source\PSoC4/CyLib.c ****     *
1787:Generated_Source\PSoC4/CyLib.c ****     *******************************************************************************/
1788:Generated_Source\PSoC4/CyLib.c ****     cystatus CySysClkPllSetPQ(uint32 pll, uint32 feedback, uint32 reference, uint32 current)
1789:Generated_Source\PSoC4/CyLib.c ****     {
 2510              		.loc 1 1789 0
 2511              		.cfi_startproc
 2512              		@ args = 0, pretend = 0, frame = 32
 2513              		@ frame_needed = 1, uses_anonymous_args = 0
 2514 0000 90B5     		push	{r4, r7, lr}
 2515              		.cfi_def_cfa_offset 12
ARM GAS  C:\Users\Jason\AppData\Local\Temp\cc7xyQyF.s 			page 77


 2516              		.cfi_offset 4, -12
 2517              		.cfi_offset 7, -8
 2518              		.cfi_offset 14, -4
 2519 0002 89B0     		sub	sp, sp, #36
 2520              		.cfi_def_cfa_offset 48
 2521 0004 00AF     		add	r7, sp, #0
 2522              		.cfi_def_cfa_register 7
 2523 0006 F860     		str	r0, [r7, #12]
 2524 0008 B960     		str	r1, [r7, #8]
 2525 000a 7A60     		str	r2, [r7, #4]
 2526 000c 3B60     		str	r3, [r7]
1790:Generated_Source\PSoC4/CyLib.c ****         uint32   regTmp;
1791:Generated_Source\PSoC4/CyLib.c ****         cystatus tmp;
1792:Generated_Source\PSoC4/CyLib.c ****         uint8    interruptState;
1793:Generated_Source\PSoC4/CyLib.c ****         cystatus returnStatus = CYRET_BAD_PARAM;
 2527              		.loc 1 1793 0
 2528 000e 0123     		movs	r3, #1
 2529 0010 FB61     		str	r3, [r7, #28]
1794:Generated_Source\PSoC4/CyLib.c **** 
1795:Generated_Source\PSoC4/CyLib.c ****         interruptState = CyEnterCriticalSection();
 2530              		.loc 1 1795 0
 2531 0012 1B23     		movs	r3, #27
 2532 0014 FC18     		adds	r4, r7, r3
 2533 0016 FFF7FEFF 		bl	CyEnterCriticalSection
 2534 001a 0300     		movs	r3, r0
 2535 001c 2370     		strb	r3, [r4]
1796:Generated_Source\PSoC4/CyLib.c **** 
1797:Generated_Source\PSoC4/CyLib.c ****         tmp = CySysClkPllConfigChangeAllowed(pll);
 2536              		.loc 1 1797 0
 2537 001e FB68     		ldr	r3, [r7, #12]
 2538 0020 1800     		movs	r0, r3
 2539 0022 FFF7FEFF 		bl	CySysClkPllConfigChangeAllowed
 2540 0026 0300     		movs	r3, r0
 2541 0028 7B61     		str	r3, [r7, #20]
1798:Generated_Source\PSoC4/CyLib.c **** 
1799:Generated_Source\PSoC4/CyLib.c ****         if ((pll < CY_IP_PLL_NR) &&
 2542              		.loc 1 1799 0
 2543 002a FB68     		ldr	r3, [r7, #12]
 2544 002c 012B     		cmp	r3, #1
 2545 002e 41D8     		bhi	.L169
 2546              		.loc 1 1799 0 is_stmt 0 discriminator 1
 2547 0030 BB68     		ldr	r3, [r7, #8]
 2548 0032 032B     		cmp	r3, #3
 2549 0034 3ED9     		bls	.L169
1800:Generated_Source\PSoC4/CyLib.c ****             (feedback  >= CY_SYS_CLK_PLL_CONFIG_FEEDBACK_DIV_MIN)  && (feedback  <= CY_SYS_CLK_PLL_
 2550              		.loc 1 1800 0 is_stmt 1
 2551 0036 BA68     		ldr	r2, [r7, #8]
 2552 0038 0423     		movs	r3, #4
 2553 003a FF33     		adds	r3, r3, #255
 2554 003c 9A42     		cmp	r2, r3
