ARM GAS  C:\Users\Jason\AppData\Local\Temp\ccp4u79f.s 			page 1


   1              		.syntax unified
   2              		.cpu cortex-m0
   3              		.fpu softvfp
   4              		.eabi_attribute 20, 1
   5              		.eabi_attribute 21, 1
   6              		.eabi_attribute 23, 3
   7              		.eabi_attribute 24, 1
   8              		.eabi_attribute 25, 1
   9              		.eabi_attribute 26, 1
  10              		.eabi_attribute 30, 6
  11              		.eabi_attribute 34, 0
  12              		.eabi_attribute 18, 4
  13              		.thumb
  14              		.syntax unified
  15              		.file	"IDAC.c"
  16              		.text
  17              	.Ltext0:
  18              		.cfi_sections	.debug_frame
  19              		.global	IDAC_initVar
  20              		.bss
  21              		.align	2
  22              		.type	IDAC_initVar, %object
  23              		.size	IDAC_initVar, 4
  24              	IDAC_initVar:
  25 0000 00000000 		.space	4
  26              		.section	.text.IDAC_Init,"ax",%progbits
  27              		.align	2
  28              		.global	IDAC_Init
  29              		.code	16
  30              		.thumb_func
  31              		.type	IDAC_Init, %function
  32              	IDAC_Init:
  33              	.LFB1:
  34              		.file 1 "Generated_Source\\PSoC4\\IDAC.c"
   1:Generated_Source\PSoC4/IDAC.c **** /*******************************************************************************
   2:Generated_Source\PSoC4/IDAC.c **** * File Name: IDAC.c
   3:Generated_Source\PSoC4/IDAC.c **** * Version 1.10
   4:Generated_Source\PSoC4/IDAC.c **** *
   5:Generated_Source\PSoC4/IDAC.c **** * Description:
   6:Generated_Source\PSoC4/IDAC.c **** *  This file provides the source code of APIs for the IDAC_P4 component.
   7:Generated_Source\PSoC4/IDAC.c **** *
   8:Generated_Source\PSoC4/IDAC.c **** *******************************************************************************
   9:Generated_Source\PSoC4/IDAC.c **** * Copyright 2013-2015, Cypress Semiconductor Corporation.  All rights reserved.
  10:Generated_Source\PSoC4/IDAC.c **** * You may use this file only in accordance with the license, terms, conditions,
  11:Generated_Source\PSoC4/IDAC.c **** * disclaimers, and limitations in the end user license agreement accompanying
  12:Generated_Source\PSoC4/IDAC.c **** * the software package with which this file was provided.
  13:Generated_Source\PSoC4/IDAC.c **** *******************************************************************************/
  14:Generated_Source\PSoC4/IDAC.c **** 
  15:Generated_Source\PSoC4/IDAC.c **** #include "IDAC.h"
  16:Generated_Source\PSoC4/IDAC.c **** 
  17:Generated_Source\PSoC4/IDAC.c **** uint32 IDAC_initVar = 0u;
  18:Generated_Source\PSoC4/IDAC.c **** 
  19:Generated_Source\PSoC4/IDAC.c **** 
  20:Generated_Source\PSoC4/IDAC.c **** /*******************************************************************************
  21:Generated_Source\PSoC4/IDAC.c **** * Function Name: IDAC_Init
  22:Generated_Source\PSoC4/IDAC.c **** ********************************************************************************
  23:Generated_Source\PSoC4/IDAC.c **** *
ARM GAS  C:\Users\Jason\AppData\Local\Temp\ccp4u79f.s 			page 2


  24:Generated_Source\PSoC4/IDAC.c **** * Summary:
  25:Generated_Source\PSoC4/IDAC.c **** *  Initializes IDAC registers with initial values provided from customizer.
  26:Generated_Source\PSoC4/IDAC.c **** *
  27:Generated_Source\PSoC4/IDAC.c **** * Parameters:
  28:Generated_Source\PSoC4/IDAC.c **** *  None
  29:Generated_Source\PSoC4/IDAC.c **** *
  30:Generated_Source\PSoC4/IDAC.c **** * Return:
  31:Generated_Source\PSoC4/IDAC.c **** *  None
  32:Generated_Source\PSoC4/IDAC.c **** *
  33:Generated_Source\PSoC4/IDAC.c **** * Global variables:
  34:Generated_Source\PSoC4/IDAC.c **** *  None
  35:Generated_Source\PSoC4/IDAC.c **** *
  36:Generated_Source\PSoC4/IDAC.c **** *******************************************************************************/
  37:Generated_Source\PSoC4/IDAC.c **** void IDAC_Init(void)
  38:Generated_Source\PSoC4/IDAC.c **** {
  35              		.loc 1 38 0
  36              		.cfi_startproc
  37              		@ args = 0, pretend = 0, frame = 8
  38              		@ frame_needed = 1, uses_anonymous_args = 0
  39 0000 90B5     		push	{r4, r7, lr}
  40              		.cfi_def_cfa_offset 12
  41              		.cfi_offset 4, -12
  42              		.cfi_offset 7, -8
  43              		.cfi_offset 14, -4
  44 0002 83B0     		sub	sp, sp, #12
  45              		.cfi_def_cfa_offset 24
  46 0004 00AF     		add	r7, sp, #0
  47              		.cfi_def_cfa_register 7
  39:Generated_Source\PSoC4/IDAC.c ****     uint32 regVal;
  40:Generated_Source\PSoC4/IDAC.c ****     uint8 enableInterrupts;
  41:Generated_Source\PSoC4/IDAC.c **** 
  42:Generated_Source\PSoC4/IDAC.c ****     /* Set initial configuration */
  43:Generated_Source\PSoC4/IDAC.c ****     enableInterrupts = CyEnterCriticalSection();
  48              		.loc 1 43 0
  49 0006 FC1D     		adds	r4, r7, #7
  50 0008 FFF7FEFF 		bl	CyEnterCriticalSection
  51 000c 0300     		movs	r3, r0
  52 000e 2370     		strb	r3, [r4]
  44:Generated_Source\PSoC4/IDAC.c ****     
  45:Generated_Source\PSoC4/IDAC.c ****     #if(IDAC_MODE_SOURCE == IDAC_IDAC_POLARITY)
  46:Generated_Source\PSoC4/IDAC.c ****         regVal  = IDAC_CSD_TRIM1_REG & ~(IDAC_CSD_IDAC_TRIM1_MASK);
  53              		.loc 1 46 0
  54 0010 164B     		ldr	r3, .L2
  55 0012 1B68     		ldr	r3, [r3]
  56 0014 0F22     		movs	r2, #15
  57 0016 9343     		bics	r3, r2
  58 0018 3B60     		str	r3, [r7]
  47:Generated_Source\PSoC4/IDAC.c ****         regVal |=  (IDAC_SFLASH_TRIM1_REG & IDAC_CSD_IDAC_TRIM1_MASK);
  59              		.loc 1 47 0
  60 001a 154B     		ldr	r3, .L2+4
  61 001c 1B78     		ldrb	r3, [r3]
  62 001e DBB2     		uxtb	r3, r3
  63 0020 1A00     		movs	r2, r3
  64 0022 0F23     		movs	r3, #15
  65 0024 1340     		ands	r3, r2
  66 0026 3A68     		ldr	r2, [r7]
  67 0028 1343     		orrs	r3, r2
ARM GAS  C:\Users\Jason\AppData\Local\Temp\ccp4u79f.s 			page 3


  68 002a 3B60     		str	r3, [r7]
  48:Generated_Source\PSoC4/IDAC.c ****         IDAC_CSD_TRIM1_REG = regVal;
  69              		.loc 1 48 0
  70 002c 0F4B     		ldr	r3, .L2
  71 002e 3A68     		ldr	r2, [r7]
  72 0030 1A60     		str	r2, [r3]
  49:Generated_Source\PSoC4/IDAC.c ****     #else
  50:Generated_Source\PSoC4/IDAC.c ****         regVal  = IDAC_CSD_TRIM2_REG & ~(IDAC_CSD_IDAC_TRIM2_MASK);
  51:Generated_Source\PSoC4/IDAC.c ****         regVal |=  (IDAC_SFLASH_TRIM2_REG & IDAC_CSD_IDAC_TRIM2_MASK);
  52:Generated_Source\PSoC4/IDAC.c ****         IDAC_CSD_TRIM2_REG = regVal;
  53:Generated_Source\PSoC4/IDAC.c ****     #endif /* (IDAC_MODE_SOURCE == IDAC_IDAC_POLARITY) */
  54:Generated_Source\PSoC4/IDAC.c **** 
  55:Generated_Source\PSoC4/IDAC.c ****     /* clear previous values */
  56:Generated_Source\PSoC4/IDAC.c ****     IDAC_IDAC_CONTROL_REG &= ((uint32)~((uint32)IDAC_IDAC_VALUE_MASK <<
  73              		.loc 1 56 0
  74 0032 104B     		ldr	r3, .L2+8
  75 0034 0F4A     		ldr	r2, .L2+8
  76 0036 1268     		ldr	r2, [r2]
  77 0038 1A60     		str	r2, [r3]
  57:Generated_Source\PSoC4/IDAC.c ****         IDAC_IDAC_VALUE_POSITION)) | ((uint32)~((uint32)IDAC_IDAC_MODE_MASK <<
  58:Generated_Source\PSoC4/IDAC.c ****         IDAC_IDAC_MODE_POSITION))  | ((uint32)~((uint32)IDAC_IDAC_RANGE_MASK  <<
  59:Generated_Source\PSoC4/IDAC.c ****         IDAC_IDAC_RANGE_POSITION));
  60:Generated_Source\PSoC4/IDAC.c **** 
  61:Generated_Source\PSoC4/IDAC.c ****     IDAC_IDAC_POLARITY_CONTROL_REG &= (~(uint32)((uint32)IDAC_IDAC_POLARITY_MASK <<
  78              		.loc 1 61 0
  79 003a 0F4B     		ldr	r3, .L2+12
  80 003c 0E4A     		ldr	r2, .L2+12
  81 003e 1268     		ldr	r2, [r2]
  82 0040 0E49     		ldr	r1, .L2+16
  83 0042 0A40     		ands	r2, r1
  84 0044 1A60     		str	r2, [r3]
  62:Generated_Source\PSoC4/IDAC.c ****         IDAC_IDAC_POLARITY_POSITION));
  63:Generated_Source\PSoC4/IDAC.c **** 
  64:Generated_Source\PSoC4/IDAC.c ****     /* set new configuration */
  65:Generated_Source\PSoC4/IDAC.c ****     IDAC_IDAC_CONTROL_REG |= (((uint32)IDAC_IDAC_INIT_VALUE <<
  85              		.loc 1 65 0
  86 0046 0B4B     		ldr	r3, .L2+8
  87 0048 0A4A     		ldr	r2, .L2+8
  88 004a 1268     		ldr	r2, [r2]
  89 004c 7821     		movs	r1, #120
  90 004e 0A43     		orrs	r2, r1
  91 0050 1A60     		str	r2, [r3]
  66:Generated_Source\PSoC4/IDAC.c ****         IDAC_IDAC_VALUE_POSITION) | ((uint32)IDAC_IDAC_RANGE <<
  67:Generated_Source\PSoC4/IDAC.c ****         IDAC_IDAC_RANGE_POSITION));
  68:Generated_Source\PSoC4/IDAC.c **** 
  69:Generated_Source\PSoC4/IDAC.c ****     IDAC_IDAC_POLARITY_CONTROL_REG |= ((uint32)IDAC_IDAC_POLARITY <<
  92              		.loc 1 69 0
  93 0052 094B     		ldr	r3, .L2+12
  94 0054 084A     		ldr	r2, .L2+12
  95 0056 1268     		ldr	r2, [r2]
  96 0058 1A60     		str	r2, [r3]
  70:Generated_Source\PSoC4/IDAC.c ****                                                            IDAC_IDAC_POLARITY_POSITION);
  71:Generated_Source\PSoC4/IDAC.c **** 
  72:Generated_Source\PSoC4/IDAC.c ****     CyExitCriticalSection(enableInterrupts);
  97              		.loc 1 72 0
  98 005a FB1D     		adds	r3, r7, #7
  99 005c 1B78     		ldrb	r3, [r3]
ARM GAS  C:\Users\Jason\AppData\Local\Temp\ccp4u79f.s 			page 4


 100 005e 1800     		movs	r0, r3
 101 0060 FFF7FEFF 		bl	CyExitCriticalSection
  73:Generated_Source\PSoC4/IDAC.c **** 
  74:Generated_Source\PSoC4/IDAC.c **** }
 102              		.loc 1 74 0
 103 0064 C046     		nop
 104 0066 BD46     		mov	sp, r7
 105 0068 03B0     		add	sp, sp, #12
 106              		@ sp needed
 107 006a 90BD     		pop	{r4, r7, pc}
 108              	.L3:
 109              		.align	2
 110              	.L2:
 111 006c 00FF2940 		.word	1076494080
 112 0070 60F2FF0F 		.word	268431968
 113 0074 08002940 		.word	1076428808
 114 0078 04002940 		.word	1076428804
 115 007c FFFFFEFF 		.word	-65537
 116              		.cfi_endproc
 117              	.LFE1:
 118              		.size	IDAC_Init, .-IDAC_Init
 119              		.section	.text.IDAC_Enable,"ax",%progbits
 120              		.align	2
 121              		.global	IDAC_Enable
 122              		.code	16
 123              		.thumb_func
 124              		.type	IDAC_Enable, %function
 125              	IDAC_Enable:
 126              	.LFB2:
  75:Generated_Source\PSoC4/IDAC.c **** 
  76:Generated_Source\PSoC4/IDAC.c **** 
  77:Generated_Source\PSoC4/IDAC.c **** /*******************************************************************************
  78:Generated_Source\PSoC4/IDAC.c **** * Function Name: IDAC_Enable
  79:Generated_Source\PSoC4/IDAC.c **** ********************************************************************************
  80:Generated_Source\PSoC4/IDAC.c **** *
  81:Generated_Source\PSoC4/IDAC.c **** * Summary:
  82:Generated_Source\PSoC4/IDAC.c **** *  Enables IDAC operations.
  83:Generated_Source\PSoC4/IDAC.c **** *
  84:Generated_Source\PSoC4/IDAC.c **** * Parameters:
  85:Generated_Source\PSoC4/IDAC.c **** *  None
  86:Generated_Source\PSoC4/IDAC.c **** *
  87:Generated_Source\PSoC4/IDAC.c **** * Return:
  88:Generated_Source\PSoC4/IDAC.c **** *  None
  89:Generated_Source\PSoC4/IDAC.c **** *
  90:Generated_Source\PSoC4/IDAC.c **** * Global variables:
  91:Generated_Source\PSoC4/IDAC.c **** *  None
  92:Generated_Source\PSoC4/IDAC.c **** *
  93:Generated_Source\PSoC4/IDAC.c **** *******************************************************************************/
  94:Generated_Source\PSoC4/IDAC.c **** void IDAC_Enable(void)
  95:Generated_Source\PSoC4/IDAC.c **** {
 127              		.loc 1 95 0
 128              		.cfi_startproc
 129              		@ args = 0, pretend = 0, frame = 8
 130              		@ frame_needed = 1, uses_anonymous_args = 0
 131 0000 90B5     		push	{r4, r7, lr}
 132              		.cfi_def_cfa_offset 12
 133              		.cfi_offset 4, -12
ARM GAS  C:\Users\Jason\AppData\Local\Temp\ccp4u79f.s 			page 5


 134              		.cfi_offset 7, -8
 135              		.cfi_offset 14, -4
 136 0002 83B0     		sub	sp, sp, #12
 137              		.cfi_def_cfa_offset 24
 138 0004 00AF     		add	r7, sp, #0
 139              		.cfi_def_cfa_register 7
  96:Generated_Source\PSoC4/IDAC.c ****     uint8 enableInterrupts;
  97:Generated_Source\PSoC4/IDAC.c **** 
  98:Generated_Source\PSoC4/IDAC.c ****     enableInterrupts = CyEnterCriticalSection();
 140              		.loc 1 98 0
 141 0006 FC1D     		adds	r4, r7, #7
 142 0008 FFF7FEFF 		bl	CyEnterCriticalSection
 143 000c 0300     		movs	r3, r0
 144 000e 2370     		strb	r3, [r4]
  99:Generated_Source\PSoC4/IDAC.c **** 
 100:Generated_Source\PSoC4/IDAC.c ****     /* Enable the IDAC */
 101:Generated_Source\PSoC4/IDAC.c ****     IDAC_IDAC_CONTROL_REG |= ((uint32)IDAC_IDAC_EN_MODE <<
 145              		.loc 1 101 0
 146 0010 0B4B     		ldr	r3, .L5
 147 0012 0B4A     		ldr	r2, .L5
 148 0014 1268     		ldr	r2, [r2]
 149 0016 C021     		movs	r1, #192
 150 0018 8900     		lsls	r1, r1, #2
 151 001a 0A43     		orrs	r2, r1
 152 001c 1A60     		str	r2, [r3]
 102:Generated_Source\PSoC4/IDAC.c ****                                                   IDAC_IDAC_MODE_POSITION);
 103:Generated_Source\PSoC4/IDAC.c ****     IDAC_IDAC_POLARITY_CONTROL_REG |= ((uint32)IDAC_IDAC_CSD_EN <<
 153              		.loc 1 103 0
 154 001e 094B     		ldr	r3, .L5+4
 155 0020 084A     		ldr	r2, .L5+4
 156 0022 1268     		ldr	r2, [r2]
 157 0024 8021     		movs	r1, #128
 158 0026 0906     		lsls	r1, r1, #24
 159 0028 0A43     		orrs	r2, r1
 160 002a 1A60     		str	r2, [r3]
 104:Generated_Source\PSoC4/IDAC.c ****                                                            IDAC_IDAC_CSD_EN_POSITION);
 105:Generated_Source\PSoC4/IDAC.c ****     CyExitCriticalSection(enableInterrupts);
 161              		.loc 1 105 0
 162 002c FB1D     		adds	r3, r7, #7
 163 002e 1B78     		ldrb	r3, [r3]
 164 0030 1800     		movs	r0, r3
 165 0032 FFF7FEFF 		bl	CyExitCriticalSection
 106:Generated_Source\PSoC4/IDAC.c **** 
 107:Generated_Source\PSoC4/IDAC.c **** }
 166              		.loc 1 107 0
 167 0036 C046     		nop
 168 0038 BD46     		mov	sp, r7
 169 003a 03B0     		add	sp, sp, #12
 170              		@ sp needed
 171 003c 90BD     		pop	{r4, r7, pc}
 172              	.L6:
 173 003e C046     		.align	2
 174              	.L5:
 175 0040 08002940 		.word	1076428808
 176 0044 04002940 		.word	1076428804
 177              		.cfi_endproc
 178              	.LFE2:
ARM GAS  C:\Users\Jason\AppData\Local\Temp\ccp4u79f.s 			page 6


 179              		.size	IDAC_Enable, .-IDAC_Enable
 180              		.section	.text.IDAC_Start,"ax",%progbits
 181              		.align	2
 182              		.global	IDAC_Start
 183              		.code	16
 184              		.thumb_func
 185              		.type	IDAC_Start, %function
 186              	IDAC_Start:
 187              	.LFB3:
 108:Generated_Source\PSoC4/IDAC.c **** 
 109:Generated_Source\PSoC4/IDAC.c **** 
 110:Generated_Source\PSoC4/IDAC.c **** /*******************************************************************************
 111:Generated_Source\PSoC4/IDAC.c **** * Function Name: IDAC_Start
 112:Generated_Source\PSoC4/IDAC.c **** ********************************************************************************
 113:Generated_Source\PSoC4/IDAC.c **** *
 114:Generated_Source\PSoC4/IDAC.c **** * Summary:
 115:Generated_Source\PSoC4/IDAC.c **** *  Starts the IDAC hardware.
 116:Generated_Source\PSoC4/IDAC.c **** *
 117:Generated_Source\PSoC4/IDAC.c **** * Parameters:
 118:Generated_Source\PSoC4/IDAC.c **** *  None
 119:Generated_Source\PSoC4/IDAC.c **** *
 120:Generated_Source\PSoC4/IDAC.c **** * Return:
 121:Generated_Source\PSoC4/IDAC.c **** *  None
 122:Generated_Source\PSoC4/IDAC.c **** *
 123:Generated_Source\PSoC4/IDAC.c **** * Global variables:
 124:Generated_Source\PSoC4/IDAC.c **** *  IDAC_initVar
 125:Generated_Source\PSoC4/IDAC.c **** *
 126:Generated_Source\PSoC4/IDAC.c **** *******************************************************************************/
 127:Generated_Source\PSoC4/IDAC.c **** void IDAC_Start(void)
 128:Generated_Source\PSoC4/IDAC.c **** {
 188              		.loc 1 128 0
 189              		.cfi_startproc
 190              		@ args = 0, pretend = 0, frame = 0
 191              		@ frame_needed = 1, uses_anonymous_args = 0
 192 0000 80B5     		push	{r7, lr}
 193              		.cfi_def_cfa_offset 8
 194              		.cfi_offset 7, -8
 195              		.cfi_offset 14, -4
 196 0002 00AF     		add	r7, sp, #0
 197              		.cfi_def_cfa_register 7
 129:Generated_Source\PSoC4/IDAC.c ****     if(0u == IDAC_initVar)
 198              		.loc 1 129 0
 199 0004 064B     		ldr	r3, .L9
 200 0006 1B68     		ldr	r3, [r3]
 201 0008 002B     		cmp	r3, #0
 202 000a 04D1     		bne	.L8
 130:Generated_Source\PSoC4/IDAC.c ****     {
 131:Generated_Source\PSoC4/IDAC.c ****         IDAC_Init();
 203              		.loc 1 131 0
 204 000c FFF7FEFF 		bl	IDAC_Init
 132:Generated_Source\PSoC4/IDAC.c ****         IDAC_initVar = 1u;
 205              		.loc 1 132 0
 206 0010 034B     		ldr	r3, .L9
 207 0012 0122     		movs	r2, #1
 208 0014 1A60     		str	r2, [r3]
 209              	.L8:
 133:Generated_Source\PSoC4/IDAC.c ****     }
ARM GAS  C:\Users\Jason\AppData\Local\Temp\ccp4u79f.s 			page 7


 134:Generated_Source\PSoC4/IDAC.c **** 
 135:Generated_Source\PSoC4/IDAC.c ****     IDAC_Enable();
 210              		.loc 1 135 0
 211 0016 FFF7FEFF 		bl	IDAC_Enable
 136:Generated_Source\PSoC4/IDAC.c **** 
 137:Generated_Source\PSoC4/IDAC.c **** }
 212              		.loc 1 137 0
 213 001a C046     		nop
 214 001c BD46     		mov	sp, r7
 215              		@ sp needed
 216 001e 80BD     		pop	{r7, pc}
 217              	.L10:
 218              		.align	2
 219              	.L9:
 220 0020 00000000 		.word	IDAC_initVar
 221              		.cfi_endproc
 222              	.LFE3:
 223              		.size	IDAC_Start, .-IDAC_Start
 224              		.section	.text.IDAC_Stop,"ax",%progbits
 225              		.align	2
 226              		.global	IDAC_Stop
 227              		.code	16
 228              		.thumb_func
 229              		.type	IDAC_Stop, %function
 230              	IDAC_Stop:
 231              	.LFB4:
 138:Generated_Source\PSoC4/IDAC.c **** 
 139:Generated_Source\PSoC4/IDAC.c **** 
 140:Generated_Source\PSoC4/IDAC.c **** /*******************************************************************************
 141:Generated_Source\PSoC4/IDAC.c **** * Function Name: IDAC_Stop
 142:Generated_Source\PSoC4/IDAC.c **** ********************************************************************************
 143:Generated_Source\PSoC4/IDAC.c **** *
 144:Generated_Source\PSoC4/IDAC.c **** * Summary:
 145:Generated_Source\PSoC4/IDAC.c **** *  Stops the IDAC hardware.
 146:Generated_Source\PSoC4/IDAC.c **** *
 147:Generated_Source\PSoC4/IDAC.c **** * Parameters:
 148:Generated_Source\PSoC4/IDAC.c **** *  None
 149:Generated_Source\PSoC4/IDAC.c **** *
 150:Generated_Source\PSoC4/IDAC.c **** * Return:
 151:Generated_Source\PSoC4/IDAC.c **** *  None
 152:Generated_Source\PSoC4/IDAC.c **** *
 153:Generated_Source\PSoC4/IDAC.c **** * Global variables:
 154:Generated_Source\PSoC4/IDAC.c **** *  None
 155:Generated_Source\PSoC4/IDAC.c **** *
 156:Generated_Source\PSoC4/IDAC.c **** *******************************************************************************/
 157:Generated_Source\PSoC4/IDAC.c **** void IDAC_Stop(void)
 158:Generated_Source\PSoC4/IDAC.c **** {
 232              		.loc 1 158 0
 233              		.cfi_startproc
 234              		@ args = 0, pretend = 0, frame = 8
 235              		@ frame_needed = 1, uses_anonymous_args = 0
 236 0000 90B5     		push	{r4, r7, lr}
 237              		.cfi_def_cfa_offset 12
 238              		.cfi_offset 4, -12
 239              		.cfi_offset 7, -8
 240              		.cfi_offset 14, -4
 241 0002 83B0     		sub	sp, sp, #12
ARM GAS  C:\Users\Jason\AppData\Local\Temp\ccp4u79f.s 			page 8


 242              		.cfi_def_cfa_offset 24
 243 0004 00AF     		add	r7, sp, #0
 244              		.cfi_def_cfa_register 7
 159:Generated_Source\PSoC4/IDAC.c ****     uint8 enableInterrupts;
 160:Generated_Source\PSoC4/IDAC.c **** 
 161:Generated_Source\PSoC4/IDAC.c ****     enableInterrupts = CyEnterCriticalSection();
 245              		.loc 1 161 0
 246 0006 FC1D     		adds	r4, r7, #7
 247 0008 FFF7FEFF 		bl	CyEnterCriticalSection
 248 000c 0300     		movs	r3, r0
 249 000e 2370     		strb	r3, [r4]
 162:Generated_Source\PSoC4/IDAC.c **** 
 163:Generated_Source\PSoC4/IDAC.c ****     /* Disable the IDAC */
 164:Generated_Source\PSoC4/IDAC.c ****     IDAC_IDAC_CONTROL_REG &= ((uint32)~((uint32)IDAC_IDAC_MODE_MASK <<
 250              		.loc 1 164 0
 251 0010 074B     		ldr	r3, .L12
 252 0012 074A     		ldr	r2, .L12
 253 0014 1268     		ldr	r2, [r2]
 254 0016 0749     		ldr	r1, .L12+4
 255 0018 0A40     		ands	r2, r1
 256 001a 1A60     		str	r2, [r3]
 165:Generated_Source\PSoC4/IDAC.c ****         IDAC_IDAC_MODE_POSITION));
 166:Generated_Source\PSoC4/IDAC.c ****     CyExitCriticalSection(enableInterrupts);
 257              		.loc 1 166 0
 258 001c FB1D     		adds	r3, r7, #7
 259 001e 1B78     		ldrb	r3, [r3]
 260 0020 1800     		movs	r0, r3
 261 0022 FFF7FEFF 		bl	CyExitCriticalSection
 167:Generated_Source\PSoC4/IDAC.c **** }
 262              		.loc 1 167 0
 263 0026 C046     		nop
 264 0028 BD46     		mov	sp, r7
 265 002a 03B0     		add	sp, sp, #12
 266              		@ sp needed
 267 002c 90BD     		pop	{r4, r7, pc}
 268              	.L13:
 269 002e C046     		.align	2
 270              	.L12:
 271 0030 08002940 		.word	1076428808
 272 0034 FFFCFFFF 		.word	-769
 273              		.cfi_endproc
 274              	.LFE4:
 275              		.size	IDAC_Stop, .-IDAC_Stop
 276              		.section	.text.IDAC_SetValue,"ax",%progbits
 277              		.align	2
 278              		.global	IDAC_SetValue
 279              		.code	16
 280              		.thumb_func
 281              		.type	IDAC_SetValue, %function
 282              	IDAC_SetValue:
 283              	.LFB5:
 168:Generated_Source\PSoC4/IDAC.c **** 
 169:Generated_Source\PSoC4/IDAC.c **** 
 170:Generated_Source\PSoC4/IDAC.c **** /*******************************************************************************
 171:Generated_Source\PSoC4/IDAC.c **** * Function Name: IDAC_SetValue
 172:Generated_Source\PSoC4/IDAC.c **** ********************************************************************************
 173:Generated_Source\PSoC4/IDAC.c **** *
ARM GAS  C:\Users\Jason\AppData\Local\Temp\ccp4u79f.s 			page 9


 174:Generated_Source\PSoC4/IDAC.c **** * Summary:
 175:Generated_Source\PSoC4/IDAC.c **** *  Sets the IDAC value.
 176:Generated_Source\PSoC4/IDAC.c **** *
 177:Generated_Source\PSoC4/IDAC.c **** * Parameters:
 178:Generated_Source\PSoC4/IDAC.c **** *  uint32 value
 179:Generated_Source\PSoC4/IDAC.c **** *
 180:Generated_Source\PSoC4/IDAC.c **** * Return:
 181:Generated_Source\PSoC4/IDAC.c **** *  None
 182:Generated_Source\PSoC4/IDAC.c **** *
 183:Generated_Source\PSoC4/IDAC.c **** * Global variables:
 184:Generated_Source\PSoC4/IDAC.c **** *  None
 185:Generated_Source\PSoC4/IDAC.c **** *
 186:Generated_Source\PSoC4/IDAC.c **** *******************************************************************************/
 187:Generated_Source\PSoC4/IDAC.c **** void IDAC_SetValue(uint32 value)
 188:Generated_Source\PSoC4/IDAC.c **** {
 284              		.loc 1 188 0
 285              		.cfi_startproc
 286              		@ args = 0, pretend = 0, frame = 16
 287              		@ frame_needed = 1, uses_anonymous_args = 0
 288 0000 90B5     		push	{r4, r7, lr}
 289              		.cfi_def_cfa_offset 12
 290              		.cfi_offset 4, -12
 291              		.cfi_offset 7, -8
 292              		.cfi_offset 14, -4
 293 0002 85B0     		sub	sp, sp, #20
 294              		.cfi_def_cfa_offset 32
 295 0004 00AF     		add	r7, sp, #0
 296              		.cfi_def_cfa_register 7
 297 0006 7860     		str	r0, [r7, #4]
 189:Generated_Source\PSoC4/IDAC.c ****     uint8 enableInterrupts;
 190:Generated_Source\PSoC4/IDAC.c ****     uint32 newRegisterValue;
 191:Generated_Source\PSoC4/IDAC.c **** 
 192:Generated_Source\PSoC4/IDAC.c ****     enableInterrupts = CyEnterCriticalSection();
 298              		.loc 1 192 0
 299 0008 0F23     		movs	r3, #15
 300 000a FC18     		adds	r4, r7, r3
 301 000c FFF7FEFF 		bl	CyEnterCriticalSection
 302 0010 0300     		movs	r3, r0
 303 0012 2370     		strb	r3, [r4]
 193:Generated_Source\PSoC4/IDAC.c **** 
 194:Generated_Source\PSoC4/IDAC.c ****     #if(IDAC_IDAC_VALUE_POSITION != 0u)
 195:Generated_Source\PSoC4/IDAC.c ****         newRegisterValue = ((IDAC_IDAC_CONTROL_REG & (~(uint32)((uint32)IDAC_IDAC_VALUE_MASK <<
 196:Generated_Source\PSoC4/IDAC.c ****         IDAC_IDAC_VALUE_POSITION))) | (value << IDAC_IDAC_VALUE_POSITION));
 197:Generated_Source\PSoC4/IDAC.c ****     #else
 198:Generated_Source\PSoC4/IDAC.c ****         newRegisterValue = ((IDAC_IDAC_CONTROL_REG & (~(uint32)IDAC_IDAC_VALUE_MASK)) | value);
 304              		.loc 1 198 0
 305 0014 0A4B     		ldr	r3, .L15
 306 0016 1B68     		ldr	r3, [r3]
 307 0018 FF22     		movs	r2, #255
 308 001a 9343     		bics	r3, r2
 309 001c 1A00     		movs	r2, r3
 310 001e 7B68     		ldr	r3, [r7, #4]
 311 0020 1343     		orrs	r3, r2
 312 0022 BB60     		str	r3, [r7, #8]
 199:Generated_Source\PSoC4/IDAC.c ****     #endif /* IDAC_IDAC_VALUE_POSITION != 0u */
 200:Generated_Source\PSoC4/IDAC.c **** 
 201:Generated_Source\PSoC4/IDAC.c ****     IDAC_IDAC_CONTROL_REG = newRegisterValue;
ARM GAS  C:\Users\Jason\AppData\Local\Temp\ccp4u79f.s 			page 10


 313              		.loc 1 201 0
 314 0024 064B     		ldr	r3, .L15
 315 0026 BA68     		ldr	r2, [r7, #8]
 316 0028 1A60     		str	r2, [r3]
 202:Generated_Source\PSoC4/IDAC.c **** 
 203:Generated_Source\PSoC4/IDAC.c ****     CyExitCriticalSection(enableInterrupts);
 317              		.loc 1 203 0
 318 002a 0F23     		movs	r3, #15
 319 002c FB18     		adds	r3, r7, r3
 320 002e 1B78     		ldrb	r3, [r3]
 321 0030 1800     		movs	r0, r3
 322 0032 FFF7FEFF 		bl	CyExitCriticalSection
 204:Generated_Source\PSoC4/IDAC.c **** }
 323              		.loc 1 204 0
 324 0036 C046     		nop
 325 0038 BD46     		mov	sp, r7
 326 003a 05B0     		add	sp, sp, #20
 327              		@ sp needed
 328 003c 90BD     		pop	{r4, r7, pc}
 329              	.L16:
 330 003e C046     		.align	2
 331              	.L15:
 332 0040 08002940 		.word	1076428808
 333              		.cfi_endproc
 334              	.LFE5:
 335              		.size	IDAC_SetValue, .-IDAC_SetValue
 336              		.text
 337              	.Letext0:
 338              		.file 2 "Generated_Source\\PSoC4\\cytypes.h"