ARM GAS  C:\Users\Jason\AppData\Local\Temp\ccTWk0TE.s 			page 1


   1              		.syntax unified
   2              		.cpu cortex-m0
   3              		.fpu softvfp
   4              		.eabi_attribute 20, 1
   5              		.eabi_attribute 21, 1
   6              		.eabi_attribute 23, 3
   7              		.eabi_attribute 24, 1
   8              		.eabi_attribute 25, 1
   9              		.eabi_attribute 26, 1
  10              		.eabi_attribute 30, 6
  11              		.eabi_attribute 34, 0
  12              		.eabi_attribute 18, 4
  13              		.thumb
  14              		.syntax unified
  15              		.file	"Timer.c"
  16              		.text
  17              	.Ltext0:
  18              		.cfi_sections	.debug_frame
  19              		.global	Timer_initVar
  20              		.bss
  21              		.type	Timer_initVar, %object
  22              		.size	Timer_initVar, 1
  23              	Timer_initVar:
  24 0000 00       		.space	1
  25              		.section	.text.Timer_Init,"ax",%progbits
  26              		.align	2
  27              		.global	Timer_Init
  28              		.code	16
  29              		.thumb_func
  30              		.type	Timer_Init, %function
  31              	Timer_Init:
  32              	.LFB1:
  33              		.file 1 "Generated_Source\\PSoC4\\Timer.c"
   1:Generated_Source\PSoC4/Timer.c **** /*******************************************************************************
   2:Generated_Source\PSoC4/Timer.c **** * File Name: Timer.c
   3:Generated_Source\PSoC4/Timer.c **** * Version 2.80
   4:Generated_Source\PSoC4/Timer.c **** *
   5:Generated_Source\PSoC4/Timer.c **** * Description:
   6:Generated_Source\PSoC4/Timer.c **** *  The Timer component consists of a 8, 16, 24 or 32-bit timer with
   7:Generated_Source\PSoC4/Timer.c **** *  a selectable period between 2 and 2^Width - 1.  The timer may free run
   8:Generated_Source\PSoC4/Timer.c **** *  or be used as a capture timer as well.  The capture can be initiated
   9:Generated_Source\PSoC4/Timer.c **** *  by a positive or negative edge signal as well as via software.
  10:Generated_Source\PSoC4/Timer.c **** *  A trigger input can be programmed to enable the timer on rising edge
  11:Generated_Source\PSoC4/Timer.c **** *  falling edge, either edge or continous run.
  12:Generated_Source\PSoC4/Timer.c **** *  Interrupts may be generated due to a terminal count condition
  13:Generated_Source\PSoC4/Timer.c **** *  or a capture event.
  14:Generated_Source\PSoC4/Timer.c **** *
  15:Generated_Source\PSoC4/Timer.c **** * Note:
  16:Generated_Source\PSoC4/Timer.c **** *
  17:Generated_Source\PSoC4/Timer.c **** ********************************************************************************
  18:Generated_Source\PSoC4/Timer.c **** * Copyright 2008-2017, Cypress Semiconductor Corporation.  All rights reserved.
  19:Generated_Source\PSoC4/Timer.c **** * You may use this file only in accordance with the license, terms, conditions,
  20:Generated_Source\PSoC4/Timer.c **** * disclaimers, and limitations in the end user license agreement accompanying
  21:Generated_Source\PSoC4/Timer.c **** * the software package with which this file was provided.
  22:Generated_Source\PSoC4/Timer.c **** ********************************************************************************/
  23:Generated_Source\PSoC4/Timer.c **** 
  24:Generated_Source\PSoC4/Timer.c **** #include "Timer.h"
ARM GAS  C:\Users\Jason\AppData\Local\Temp\ccTWk0TE.s 			page 2


  25:Generated_Source\PSoC4/Timer.c **** 
  26:Generated_Source\PSoC4/Timer.c **** uint8 Timer_initVar = 0u;
  27:Generated_Source\PSoC4/Timer.c **** 
  28:Generated_Source\PSoC4/Timer.c **** 
  29:Generated_Source\PSoC4/Timer.c **** /*******************************************************************************
  30:Generated_Source\PSoC4/Timer.c **** * Function Name: Timer_Init
  31:Generated_Source\PSoC4/Timer.c **** ********************************************************************************
  32:Generated_Source\PSoC4/Timer.c **** *
  33:Generated_Source\PSoC4/Timer.c **** * Summary:
  34:Generated_Source\PSoC4/Timer.c **** *  Initialize to the schematic state
  35:Generated_Source\PSoC4/Timer.c **** *
  36:Generated_Source\PSoC4/Timer.c **** * Parameters:
  37:Generated_Source\PSoC4/Timer.c **** *  void
  38:Generated_Source\PSoC4/Timer.c **** *
  39:Generated_Source\PSoC4/Timer.c **** * Return:
  40:Generated_Source\PSoC4/Timer.c **** *  void
  41:Generated_Source\PSoC4/Timer.c **** *
  42:Generated_Source\PSoC4/Timer.c **** *******************************************************************************/
  43:Generated_Source\PSoC4/Timer.c **** void Timer_Init(void) 
  44:Generated_Source\PSoC4/Timer.c **** {
  34              		.loc 1 44 0
  35              		.cfi_startproc
  36              		@ args = 0, pretend = 0, frame = 8
  37              		@ frame_needed = 1, uses_anonymous_args = 0
  38 0000 90B5     		push	{r4, r7, lr}
  39              		.cfi_def_cfa_offset 12
  40              		.cfi_offset 4, -12
  41              		.cfi_offset 7, -8
  42              		.cfi_offset 14, -4
  43 0002 83B0     		sub	sp, sp, #12
  44              		.cfi_def_cfa_offset 24
  45 0004 00AF     		add	r7, sp, #0
  46              		.cfi_def_cfa_register 7
  45:Generated_Source\PSoC4/Timer.c ****     #if(!Timer_UsingFixedFunction)
  46:Generated_Source\PSoC4/Timer.c ****             /* Interrupt State Backup for Critical Region*/
  47:Generated_Source\PSoC4/Timer.c ****             uint8 Timer_interruptState;
  48:Generated_Source\PSoC4/Timer.c ****     #endif /* Interrupt state back up for Fixed Function only */
  49:Generated_Source\PSoC4/Timer.c **** 
  50:Generated_Source\PSoC4/Timer.c ****     #if (Timer_UsingFixedFunction)
  51:Generated_Source\PSoC4/Timer.c ****         /* Clear all bits but the enable bit (if it's already set) for Timer operation */
  52:Generated_Source\PSoC4/Timer.c ****         Timer_CONTROL &= Timer_CTRL_ENABLE;
  53:Generated_Source\PSoC4/Timer.c **** 
  54:Generated_Source\PSoC4/Timer.c ****         /* Clear the mode bits for continuous run mode */
  55:Generated_Source\PSoC4/Timer.c ****         #if (CY_PSOC5A)
  56:Generated_Source\PSoC4/Timer.c ****             Timer_CONTROL2 &= ((uint8)(~Timer_CTRL_MODE_MASK));
  57:Generated_Source\PSoC4/Timer.c ****         #endif /* Clear bits in CONTROL2 only in PSOC5A */
  58:Generated_Source\PSoC4/Timer.c **** 
  59:Generated_Source\PSoC4/Timer.c ****         #if (CY_PSOC3 || CY_PSOC5LP)
  60:Generated_Source\PSoC4/Timer.c ****             Timer_CONTROL3 &= ((uint8)(~Timer_CTRL_MODE_MASK));
  61:Generated_Source\PSoC4/Timer.c ****         #endif /* CONTROL3 register exists only in PSoC3 OR PSoC5LP */
  62:Generated_Source\PSoC4/Timer.c **** 
  63:Generated_Source\PSoC4/Timer.c ****         /* Check if One Shot mode is enabled i.e. RunMode !=0*/
  64:Generated_Source\PSoC4/Timer.c ****         #if (Timer_RunModeUsed != 0x0u)
  65:Generated_Source\PSoC4/Timer.c ****             /* Set 3rd bit of Control register to enable one shot mode */
  66:Generated_Source\PSoC4/Timer.c ****             Timer_CONTROL |= 0x04u;
  67:Generated_Source\PSoC4/Timer.c ****         #endif /* One Shot enabled only when RunModeUsed is not Continuous*/
  68:Generated_Source\PSoC4/Timer.c **** 
ARM GAS  C:\Users\Jason\AppData\Local\Temp\ccTWk0TE.s 			page 3


  69:Generated_Source\PSoC4/Timer.c ****         #if (Timer_RunModeUsed == 2)
  70:Generated_Source\PSoC4/Timer.c ****             #if (CY_PSOC5A)
  71:Generated_Source\PSoC4/Timer.c ****                 /* Set last 2 bits of control2 register if one shot(halt on
  72:Generated_Source\PSoC4/Timer.c ****                 interrupt) is enabled*/
  73:Generated_Source\PSoC4/Timer.c ****                 Timer_CONTROL2 |= 0x03u;
  74:Generated_Source\PSoC4/Timer.c ****             #endif /* Set One-Shot Halt on Interrupt bit in CONTROL2 for PSoC5A */
  75:Generated_Source\PSoC4/Timer.c **** 
  76:Generated_Source\PSoC4/Timer.c ****             #if (CY_PSOC3 || CY_PSOC5LP)
  77:Generated_Source\PSoC4/Timer.c ****                 /* Set last 2 bits of control3 register if one shot(halt on
  78:Generated_Source\PSoC4/Timer.c ****                 interrupt) is enabled*/
  79:Generated_Source\PSoC4/Timer.c ****                 Timer_CONTROL3 |= 0x03u;
  80:Generated_Source\PSoC4/Timer.c ****             #endif /* Set One-Shot Halt on Interrupt bit in CONTROL3 for PSoC3 or PSoC5LP */
  81:Generated_Source\PSoC4/Timer.c **** 
  82:Generated_Source\PSoC4/Timer.c ****         #endif /* Remove section if One Shot Halt on Interrupt is not enabled */
  83:Generated_Source\PSoC4/Timer.c **** 
  84:Generated_Source\PSoC4/Timer.c ****         #if (Timer_UsingHWEnable != 0)
  85:Generated_Source\PSoC4/Timer.c ****             #if (CY_PSOC5A)
  86:Generated_Source\PSoC4/Timer.c ****                 /* Set the default Run Mode of the Timer to Continuous */
  87:Generated_Source\PSoC4/Timer.c ****                 Timer_CONTROL2 |= Timer_CTRL_MODE_PULSEWIDTH;
  88:Generated_Source\PSoC4/Timer.c ****             #endif /* Set Continuous Run Mode in CONTROL2 for PSoC5A */
  89:Generated_Source\PSoC4/Timer.c **** 
  90:Generated_Source\PSoC4/Timer.c ****             #if (CY_PSOC3 || CY_PSOC5LP)
  91:Generated_Source\PSoC4/Timer.c ****                 /* Clear and Set ROD and COD bits of CFG2 register */
  92:Generated_Source\PSoC4/Timer.c ****                 Timer_CONTROL3 &= ((uint8)(~Timer_CTRL_RCOD_MASK));
  93:Generated_Source\PSoC4/Timer.c ****                 Timer_CONTROL3 |= Timer_CTRL_RCOD;
  94:Generated_Source\PSoC4/Timer.c **** 
  95:Generated_Source\PSoC4/Timer.c ****                 /* Clear and Enable the HW enable bit in CFG2 register */
  96:Generated_Source\PSoC4/Timer.c ****                 Timer_CONTROL3 &= ((uint8)(~Timer_CTRL_ENBL_MASK));
  97:Generated_Source\PSoC4/Timer.c ****                 Timer_CONTROL3 |= Timer_CTRL_ENBL;
  98:Generated_Source\PSoC4/Timer.c **** 
  99:Generated_Source\PSoC4/Timer.c ****                 /* Set the default Run Mode of the Timer to Continuous */
 100:Generated_Source\PSoC4/Timer.c ****                 Timer_CONTROL3 |= Timer_CTRL_MODE_CONTINUOUS;
 101:Generated_Source\PSoC4/Timer.c ****             #endif /* Set Continuous Run Mode in CONTROL3 for PSoC3ES3 or PSoC5A */
 102:Generated_Source\PSoC4/Timer.c **** 
 103:Generated_Source\PSoC4/Timer.c ****         #endif /* Configure Run Mode with hardware enable */
 104:Generated_Source\PSoC4/Timer.c **** 
 105:Generated_Source\PSoC4/Timer.c ****         /* Clear and Set SYNCTC and SYNCCMP bits of RT1 register */
 106:Generated_Source\PSoC4/Timer.c ****         Timer_RT1 &= ((uint8)(~Timer_RT1_MASK));
 107:Generated_Source\PSoC4/Timer.c ****         Timer_RT1 |= Timer_SYNC;
 108:Generated_Source\PSoC4/Timer.c **** 
 109:Generated_Source\PSoC4/Timer.c ****         /*Enable DSI Sync all all inputs of the Timer*/
 110:Generated_Source\PSoC4/Timer.c ****         Timer_RT1 &= ((uint8)(~Timer_SYNCDSI_MASK));
 111:Generated_Source\PSoC4/Timer.c ****         Timer_RT1 |= Timer_SYNCDSI_EN;
 112:Generated_Source\PSoC4/Timer.c **** 
 113:Generated_Source\PSoC4/Timer.c ****         /* Set the IRQ to use the status register interrupts */
 114:Generated_Source\PSoC4/Timer.c ****         Timer_CONTROL2 |= Timer_CTRL2_IRQ_SEL;
 115:Generated_Source\PSoC4/Timer.c ****     #endif /* Configuring registers of fixed function implementation */
 116:Generated_Source\PSoC4/Timer.c **** 
 117:Generated_Source\PSoC4/Timer.c ****     /* Set Initial values from Configuration */
 118:Generated_Source\PSoC4/Timer.c ****     Timer_WritePeriod(Timer_INIT_PERIOD);
  47              		.loc 1 118 0
  48 0006 0123     		movs	r3, #1
  49 0008 5B42     		rsbs	r3, r3, #0
  50 000a 1800     		movs	r0, r3
  51 000c FFF7FEFF 		bl	Timer_WritePeriod
 119:Generated_Source\PSoC4/Timer.c ****     Timer_WriteCounter(Timer_INIT_PERIOD);
  52              		.loc 1 119 0
ARM GAS  C:\Users\Jason\AppData\Local\Temp\ccTWk0TE.s 			page 4


  53 0010 0123     		movs	r3, #1
  54 0012 5B42     		rsbs	r3, r3, #0
  55 0014 1800     		movs	r0, r3
  56 0016 FFF7FEFF 		bl	Timer_WriteCounter
 120:Generated_Source\PSoC4/Timer.c **** 
 121:Generated_Source\PSoC4/Timer.c ****     #if (Timer_UsingHWCaptureCounter)/* Capture counter is enabled */
 122:Generated_Source\PSoC4/Timer.c ****         Timer_CAPTURE_COUNT_CTRL |= Timer_CNTR_ENABLE;
 123:Generated_Source\PSoC4/Timer.c ****         Timer_SetCaptureCount(Timer_INIT_CAPTURE_COUNT);
 124:Generated_Source\PSoC4/Timer.c ****     #endif /* Configure capture counter value */
 125:Generated_Source\PSoC4/Timer.c **** 
 126:Generated_Source\PSoC4/Timer.c ****     #if (!Timer_UsingFixedFunction)
 127:Generated_Source\PSoC4/Timer.c ****         #if (Timer_SoftwareCaptureMode)
 128:Generated_Source\PSoC4/Timer.c ****             Timer_SetCaptureMode(Timer_INIT_CAPTURE_MODE);
 129:Generated_Source\PSoC4/Timer.c ****         #endif /* Set Capture Mode for UDB implementation if capture mode is software controlled */
 130:Generated_Source\PSoC4/Timer.c **** 
 131:Generated_Source\PSoC4/Timer.c ****         #if (Timer_SoftwareTriggerMode)
 132:Generated_Source\PSoC4/Timer.c ****             #if (!Timer_UDB_CONTROL_REG_REMOVED)
 133:Generated_Source\PSoC4/Timer.c ****                 if (0u == (Timer_CONTROL & Timer__B_TIMER__TM_SOFTWARE))
 134:Generated_Source\PSoC4/Timer.c ****                 {
 135:Generated_Source\PSoC4/Timer.c ****                     Timer_SetTriggerMode(Timer_INIT_TRIGGER_MODE);
 136:Generated_Source\PSoC4/Timer.c ****                 }
 137:Generated_Source\PSoC4/Timer.c ****             #endif /* (!Timer_UDB_CONTROL_REG_REMOVED) */
 138:Generated_Source\PSoC4/Timer.c ****         #endif /* Set trigger mode for UDB Implementation if trigger mode is software controlled */
 139:Generated_Source\PSoC4/Timer.c **** 
 140:Generated_Source\PSoC4/Timer.c ****         /* CyEnterCriticalRegion and CyExitCriticalRegion are used to mark following region critica
 141:Generated_Source\PSoC4/Timer.c ****         /* Enter Critical Region*/
 142:Generated_Source\PSoC4/Timer.c ****         Timer_interruptState = CyEnterCriticalSection();
  57              		.loc 1 142 0
  58 001a FC1D     		adds	r4, r7, #7
  59 001c FFF7FEFF 		bl	CyEnterCriticalSection
  60 0020 0300     		movs	r3, r0
  61 0022 2370     		strb	r3, [r4]
 143:Generated_Source\PSoC4/Timer.c **** 
 144:Generated_Source\PSoC4/Timer.c ****         /* Use the interrupt output of the status register for IRQ output */
 145:Generated_Source\PSoC4/Timer.c ****         Timer_STATUS_AUX_CTRL |= Timer_STATUS_ACTL_INT_EN_MASK;
  62              		.loc 1 145 0
  63 0024 0A4A     		ldr	r2, .L2
  64 0026 0A4B     		ldr	r3, .L2
  65 0028 1B78     		ldrb	r3, [r3]
  66 002a DBB2     		uxtb	r3, r3
  67 002c 1021     		movs	r1, #16
  68 002e 0B43     		orrs	r3, r1
  69 0030 DBB2     		uxtb	r3, r3
  70 0032 1370     		strb	r3, [r2]
 146:Generated_Source\PSoC4/Timer.c **** 
 147:Generated_Source\PSoC4/Timer.c ****         /* Exit Critical Region*/
 148:Generated_Source\PSoC4/Timer.c ****         CyExitCriticalSection(Timer_interruptState);
  71              		.loc 1 148 0
  72 0034 FB1D     		adds	r3, r7, #7
  73 0036 1B78     		ldrb	r3, [r3]
  74 0038 1800     		movs	r0, r3
  75 003a FFF7FEFF 		bl	CyExitCriticalSection
 149:Generated_Source\PSoC4/Timer.c **** 
 150:Generated_Source\PSoC4/Timer.c ****         #if (Timer_EnableTriggerMode)
 151:Generated_Source\PSoC4/Timer.c ****             Timer_EnableTrigger();
 152:Generated_Source\PSoC4/Timer.c ****         #endif /* Set Trigger enable bit for UDB implementation in the control register*/
 153:Generated_Source\PSoC4/Timer.c **** 		
ARM GAS  C:\Users\Jason\AppData\Local\Temp\ccTWk0TE.s 			page 5


 154:Generated_Source\PSoC4/Timer.c **** 		
 155:Generated_Source\PSoC4/Timer.c ****         #if (Timer_InterruptOnCaptureCount && !Timer_UDB_CONTROL_REG_REMOVED)
 156:Generated_Source\PSoC4/Timer.c ****             Timer_SetInterruptCount(Timer_INIT_INT_CAPTURE_COUNT);
 157:Generated_Source\PSoC4/Timer.c ****         #endif /* Set interrupt count in UDB implementation if interrupt count feature is checked.*
 158:Generated_Source\PSoC4/Timer.c **** 
 159:Generated_Source\PSoC4/Timer.c ****         Timer_ClearFIFO();
  76              		.loc 1 159 0
  77 003e FFF7FEFF 		bl	Timer_ClearFIFO
 160:Generated_Source\PSoC4/Timer.c ****     #endif /* Configure additional features of UDB implementation */
 161:Generated_Source\PSoC4/Timer.c **** 
 162:Generated_Source\PSoC4/Timer.c ****     Timer_SetInterruptMode(Timer_INIT_INTERRUPT_MODE);
  78              		.loc 1 162 0
  79 0042 0020     		movs	r0, #0
  80 0044 FFF7FEFF 		bl	Timer_SetInterruptMode
 163:Generated_Source\PSoC4/Timer.c **** }
  81              		.loc 1 163 0
  82 0048 C046     		nop
  83 004a BD46     		mov	sp, r7
  84 004c 03B0     		add	sp, sp, #12
  85              		@ sp needed
  86 004e 90BD     		pop	{r4, r7, pc}
  87              	.L3:
  88              		.align	2
  89              	.L2:
  90 0050 95000F40 		.word	1074725013
  91              		.cfi_endproc
  92              	.LFE1:
  93              		.size	Timer_Init, .-Timer_Init
  94              		.section	.text.Timer_Enable,"ax",%progbits
  95              		.align	2
  96              		.global	Timer_Enable
  97              		.code	16
  98              		.thumb_func
  99              		.type	Timer_Enable, %function
 100              	Timer_Enable:
 101              	.LFB2:
 164:Generated_Source\PSoC4/Timer.c **** 
 165:Generated_Source\PSoC4/Timer.c **** 
 166:Generated_Source\PSoC4/Timer.c **** /*******************************************************************************
 167:Generated_Source\PSoC4/Timer.c **** * Function Name: Timer_Enable
 168:Generated_Source\PSoC4/Timer.c **** ********************************************************************************
 169:Generated_Source\PSoC4/Timer.c **** *
 170:Generated_Source\PSoC4/Timer.c **** * Summary:
 171:Generated_Source\PSoC4/Timer.c **** *  Enable the Timer
 172:Generated_Source\PSoC4/Timer.c **** *
 173:Generated_Source\PSoC4/Timer.c **** * Parameters:
 174:Generated_Source\PSoC4/Timer.c **** *  void
 175:Generated_Source\PSoC4/Timer.c **** *
 176:Generated_Source\PSoC4/Timer.c **** * Return:
 177:Generated_Source\PSoC4/Timer.c **** *  void
 178:Generated_Source\PSoC4/Timer.c **** *
 179:Generated_Source\PSoC4/Timer.c **** *******************************************************************************/
 180:Generated_Source\PSoC4/Timer.c **** void Timer_Enable(void) 
 181:Generated_Source\PSoC4/Timer.c **** {
 102              		.loc 1 181 0
 103              		.cfi_startproc
 104              		@ args = 0, pretend = 0, frame = 0
ARM GAS  C:\Users\Jason\AppData\Local\Temp\ccTWk0TE.s 			page 6


 105              		@ frame_needed = 1, uses_anonymous_args = 0
 106 0000 80B5     		push	{r7, lr}
 107              		.cfi_def_cfa_offset 8
 108              		.cfi_offset 7, -8
 109              		.cfi_offset 14, -4
 110 0002 00AF     		add	r7, sp, #0
 111              		.cfi_def_cfa_register 7
 182:Generated_Source\PSoC4/Timer.c ****     /* Globally Enable the Fixed Function Block chosen */
 183:Generated_Source\PSoC4/Timer.c ****     #if (Timer_UsingFixedFunction)
 184:Generated_Source\PSoC4/Timer.c ****         Timer_GLOBAL_ENABLE |= Timer_BLOCK_EN_MASK;
 185:Generated_Source\PSoC4/Timer.c ****         Timer_GLOBAL_STBY_ENABLE |= Timer_BLOCK_STBY_EN_MASK;
 186:Generated_Source\PSoC4/Timer.c ****     #endif /* Set Enable bit for enabling Fixed function timer*/
 187:Generated_Source\PSoC4/Timer.c **** 
 188:Generated_Source\PSoC4/Timer.c ****     /* Remove assignment if control register is removed */
 189:Generated_Source\PSoC4/Timer.c ****     #if (!Timer_UDB_CONTROL_REG_REMOVED || Timer_UsingFixedFunction)
 190:Generated_Source\PSoC4/Timer.c ****         Timer_CONTROL |= Timer_CTRL_ENABLE;
 112              		.loc 1 190 0
 113 0004 0549     		ldr	r1, .L5
 114 0006 054B     		ldr	r3, .L5
 115 0008 1B78     		ldrb	r3, [r3]
 116 000a DBB2     		uxtb	r3, r3
 117 000c 8022     		movs	r2, #128
 118 000e 5242     		rsbs	r2, r2, #0
 119 0010 1343     		orrs	r3, r2
 120 0012 DBB2     		uxtb	r3, r3
 121 0014 0B70     		strb	r3, [r1]
 191:Generated_Source\PSoC4/Timer.c ****     #endif /* Remove assignment if control register is removed */
 192:Generated_Source\PSoC4/Timer.c **** }
 122              		.loc 1 192 0
 123 0016 C046     		nop
 124 0018 BD46     		mov	sp, r7
 125              		@ sp needed
 126 001a 80BD     		pop	{r7, pc}
 127              	.L6:
 128              		.align	2
 129              	.L5:
 130 001c 73000F40 		.word	1074724979
 131              		.cfi_endproc
 132              	.LFE2:
 133              		.size	Timer_Enable, .-Timer_Enable
 134              		.section	.text.Timer_Start,"ax",%progbits
 135              		.align	2
 136              		.global	Timer_Start
 137              		.code	16
 138              		.thumb_func
 139              		.type	Timer_Start, %function
 140              	Timer_Start:
 141              	.LFB3:
 193:Generated_Source\PSoC4/Timer.c **** 
 194:Generated_Source\PSoC4/Timer.c **** 
 195:Generated_Source\PSoC4/Timer.c **** /*******************************************************************************
 196:Generated_Source\PSoC4/Timer.c **** * Function Name: Timer_Start
 197:Generated_Source\PSoC4/Timer.c **** ********************************************************************************
 198:Generated_Source\PSoC4/Timer.c **** *
 199:Generated_Source\PSoC4/Timer.c **** * Summary:
 200:Generated_Source\PSoC4/Timer.c **** *  The start function initializes the timer with the default values, the
 201:Generated_Source\PSoC4/Timer.c **** *  enables the timerto begin counting.  It does not enable interrupts,
ARM GAS  C:\Users\Jason\AppData\Local\Temp\ccTWk0TE.s 			page 7


 202:Generated_Source\PSoC4/Timer.c **** *  the EnableInt command should be called if interrupt generation is required.
 203:Generated_Source\PSoC4/Timer.c **** *
 204:Generated_Source\PSoC4/Timer.c **** * Parameters:
 205:Generated_Source\PSoC4/Timer.c **** *  void
 206:Generated_Source\PSoC4/Timer.c **** *
 207:Generated_Source\PSoC4/Timer.c **** * Return:
 208:Generated_Source\PSoC4/Timer.c **** *  void
 209:Generated_Source\PSoC4/Timer.c **** *
 210:Generated_Source\PSoC4/Timer.c **** * Global variables:
 211:Generated_Source\PSoC4/Timer.c **** *  Timer_initVar: Is modified when this function is called for the
 212:Generated_Source\PSoC4/Timer.c **** *   first time. Is used to ensure that initialization happens only once.
 213:Generated_Source\PSoC4/Timer.c **** *
 214:Generated_Source\PSoC4/Timer.c **** *******************************************************************************/
 215:Generated_Source\PSoC4/Timer.c **** void Timer_Start(void) 
 216:Generated_Source\PSoC4/Timer.c **** {
 142              		.loc 1 216 0
 143              		.cfi_startproc
 144              		@ args = 0, pretend = 0, frame = 0
 145              		@ frame_needed = 1, uses_anonymous_args = 0
 146 0000 80B5     		push	{r7, lr}
 147              		.cfi_def_cfa_offset 8
 148              		.cfi_offset 7, -8
 149              		.cfi_offset 14, -4
 150 0002 00AF     		add	r7, sp, #0
 151              		.cfi_def_cfa_register 7
 217:Generated_Source\PSoC4/Timer.c ****     if(Timer_initVar == 0u)
 152              		.loc 1 217 0
 153 0004 064B     		ldr	r3, .L9
 154 0006 1B78     		ldrb	r3, [r3]
 155 0008 002B     		cmp	r3, #0
 156 000a 04D1     		bne	.L8
 218:Generated_Source\PSoC4/Timer.c ****     {
 219:Generated_Source\PSoC4/Timer.c ****         Timer_Init();
 157              		.loc 1 219 0
 158 000c FFF7FEFF 		bl	Timer_Init
 220:Generated_Source\PSoC4/Timer.c **** 
 221:Generated_Source\PSoC4/Timer.c ****         Timer_initVar = 1u;   /* Clear this bit for Initialization */
 159              		.loc 1 221 0
 160 0010 034B     		ldr	r3, .L9
 161 0012 0122     		movs	r2, #1
 162 0014 1A70     		strb	r2, [r3]
 163              	.L8:
 222:Generated_Source\PSoC4/Timer.c ****     }
 223:Generated_Source\PSoC4/Timer.c **** 
 224:Generated_Source\PSoC4/Timer.c ****     /* Enable the Timer */
 225:Generated_Source\PSoC4/Timer.c ****     Timer_Enable();
 164              		.loc 1 225 0
 165 0016 FFF7FEFF 		bl	Timer_Enable
 226:Generated_Source\PSoC4/Timer.c **** }
 166              		.loc 1 226 0
 167 001a C046     		nop
 168 001c BD46     		mov	sp, r7
 169              		@ sp needed
 170 001e 80BD     		pop	{r7, pc}
 171              	.L10:
 172              		.align	2
 173              	.L9:
ARM GAS  C:\Users\Jason\AppData\Local\Temp\ccTWk0TE.s 			page 8


 174 0020 00000000 		.word	Timer_initVar
 175              		.cfi_endproc
 176              	.LFE3:
 177              		.size	Timer_Start, .-Timer_Start
 178              		.section	.text.Timer_Stop,"ax",%progbits
 179              		.align	2
 180              		.global	Timer_Stop
 181              		.code	16
 182              		.thumb_func
 183              		.type	Timer_Stop, %function
 184              	Timer_Stop:
 185              	.LFB4:
 227:Generated_Source\PSoC4/Timer.c **** 
 228:Generated_Source\PSoC4/Timer.c **** 
 229:Generated_Source\PSoC4/Timer.c **** /*******************************************************************************
 230:Generated_Source\PSoC4/Timer.c **** * Function Name: Timer_Stop
 231:Generated_Source\PSoC4/Timer.c **** ********************************************************************************
 232:Generated_Source\PSoC4/Timer.c **** *
 233:Generated_Source\PSoC4/Timer.c **** * Summary:
 234:Generated_Source\PSoC4/Timer.c **** *  The stop function halts the timer, but does not change any modes or disable
 235:Generated_Source\PSoC4/Timer.c **** *  interrupts.
 236:Generated_Source\PSoC4/Timer.c **** *
 237:Generated_Source\PSoC4/Timer.c **** * Parameters:
 238:Generated_Source\PSoC4/Timer.c **** *  void
 239:Generated_Source\PSoC4/Timer.c **** *
 240:Generated_Source\PSoC4/Timer.c **** * Return:
 241:Generated_Source\PSoC4/Timer.c **** *  void
 242:Generated_Source\PSoC4/Timer.c **** *
 243:Generated_Source\PSoC4/Timer.c **** * Side Effects: If the Enable mode is set to Hardware only then this function
 244:Generated_Source\PSoC4/Timer.c **** *               has no effect on the operation of the timer.
 245:Generated_Source\PSoC4/Timer.c **** *
 246:Generated_Source\PSoC4/Timer.c **** *******************************************************************************/
 247:Generated_Source\PSoC4/Timer.c **** void Timer_Stop(void) 
 248:Generated_Source\PSoC4/Timer.c **** {
 186              		.loc 1 248 0
 187              		.cfi_startproc
 188              		@ args = 0, pretend = 0, frame = 0
 189              		@ frame_needed = 1, uses_anonymous_args = 0
 190 0000 80B5     		push	{r7, lr}
 191              		.cfi_def_cfa_offset 8
 192              		.cfi_offset 7, -8
 193              		.cfi_offset 14, -4
 194 0002 00AF     		add	r7, sp, #0
 195              		.cfi_def_cfa_register 7
 249:Generated_Source\PSoC4/Timer.c ****     /* Disable Timer */
 250:Generated_Source\PSoC4/Timer.c ****     #if(!Timer_UDB_CONTROL_REG_REMOVED || Timer_UsingFixedFunction)
 251:Generated_Source\PSoC4/Timer.c ****         Timer_CONTROL &= ((uint8)(~Timer_CTRL_ENABLE));
 196              		.loc 1 251 0
 197 0004 054A     		ldr	r2, .L12
 198 0006 054B     		ldr	r3, .L12
 199 0008 1B78     		ldrb	r3, [r3]
 200 000a DBB2     		uxtb	r3, r3
 201 000c 7F21     		movs	r1, #127
 202 000e 0B40     		ands	r3, r1
 203 0010 DBB2     		uxtb	r3, r3
 204 0012 1370     		strb	r3, [r2]
 252:Generated_Source\PSoC4/Timer.c ****     #endif /* Remove assignment if control register is removed */
ARM GAS  C:\Users\Jason\AppData\Local\Temp\ccTWk0TE.s 			page 9


 253:Generated_Source\PSoC4/Timer.c **** 
 254:Generated_Source\PSoC4/Timer.c ****     /* Globally disable the Fixed Function Block chosen */
 255:Generated_Source\PSoC4/Timer.c ****     #if (Timer_UsingFixedFunction)
 256:Generated_Source\PSoC4/Timer.c ****         Timer_GLOBAL_ENABLE &= ((uint8)(~Timer_BLOCK_EN_MASK));
 257:Generated_Source\PSoC4/Timer.c ****         Timer_GLOBAL_STBY_ENABLE &= ((uint8)(~Timer_BLOCK_STBY_EN_MASK));
 258:Generated_Source\PSoC4/Timer.c ****     #endif /* Disable global enable for the Timer Fixed function block to stop the Timer*/
 259:Generated_Source\PSoC4/Timer.c **** }
 205              		.loc 1 259 0
 206 0014 C046     		nop
 207 0016 BD46     		mov	sp, r7
 208              		@ sp needed
 209 0018 80BD     		pop	{r7, pc}
 210              	.L13:
 211 001a C046     		.align	2
 212              	.L12:
 213 001c 73000F40 		.word	1074724979
 214              		.cfi_endproc
 215              	.LFE4:
 216              		.size	Timer_Stop, .-Timer_Stop
 217              		.section	.text.Timer_SetInterruptMode,"ax",%progbits
 218              		.align	2
 219              		.global	Timer_SetInterruptMode
 220              		.code	16
 221              		.thumb_func
 222              		.type	Timer_SetInterruptMode, %function
 223              	Timer_SetInterruptMode:
 224              	.LFB5:
 260:Generated_Source\PSoC4/Timer.c **** 
 261:Generated_Source\PSoC4/Timer.c **** 
 262:Generated_Source\PSoC4/Timer.c **** /*******************************************************************************
 263:Generated_Source\PSoC4/Timer.c **** * Function Name: Timer_SetInterruptMode
 264:Generated_Source\PSoC4/Timer.c **** ********************************************************************************
 265:Generated_Source\PSoC4/Timer.c **** *
 266:Generated_Source\PSoC4/Timer.c **** * Summary:
 267:Generated_Source\PSoC4/Timer.c **** *  This function selects which of the interrupt inputs may cause an interrupt.
 268:Generated_Source\PSoC4/Timer.c **** *  The twosources are caputure and terminal.  One, both or neither may
 269:Generated_Source\PSoC4/Timer.c **** *  be selected.
 270:Generated_Source\PSoC4/Timer.c **** *
 271:Generated_Source\PSoC4/Timer.c **** * Parameters:
 272:Generated_Source\PSoC4/Timer.c **** *  interruptMode:   This parameter is used to enable interrups on either/or
 273:Generated_Source\PSoC4/Timer.c **** *                   terminal count or capture.
 274:Generated_Source\PSoC4/Timer.c **** *
 275:Generated_Source\PSoC4/Timer.c **** * Return:
 276:Generated_Source\PSoC4/Timer.c **** *  void
 277:Generated_Source\PSoC4/Timer.c **** *
 278:Generated_Source\PSoC4/Timer.c **** *******************************************************************************/
 279:Generated_Source\PSoC4/Timer.c **** void Timer_SetInterruptMode(uint8 interruptMode) 
 280:Generated_Source\PSoC4/Timer.c **** {
 225              		.loc 1 280 0
 226              		.cfi_startproc
 227              		@ args = 0, pretend = 0, frame = 8
 228              		@ frame_needed = 1, uses_anonymous_args = 0
 229 0000 80B5     		push	{r7, lr}
 230              		.cfi_def_cfa_offset 8
 231              		.cfi_offset 7, -8
 232              		.cfi_offset 14, -4
 233 0002 82B0     		sub	sp, sp, #8
ARM GAS  C:\Users\Jason\AppData\Local\Temp\ccTWk0TE.s 			page 10


 234              		.cfi_def_cfa_offset 16
 235 0004 00AF     		add	r7, sp, #0
 236              		.cfi_def_cfa_register 7
 237 0006 0200     		movs	r2, r0
 238 0008 FB1D     		adds	r3, r7, #7
 239 000a 1A70     		strb	r2, [r3]
 281:Generated_Source\PSoC4/Timer.c ****     Timer_STATUS_MASK = interruptMode;
 240              		.loc 1 281 0
 241 000c 034A     		ldr	r2, .L15
 242 000e FB1D     		adds	r3, r7, #7
 243 0010 1B78     		ldrb	r3, [r3]
 244 0012 1370     		strb	r3, [r2]
 282:Generated_Source\PSoC4/Timer.c **** }
 245              		.loc 1 282 0
 246 0014 C046     		nop
 247 0016 BD46     		mov	sp, r7
 248 0018 02B0     		add	sp, sp, #8
 249              		@ sp needed
 250 001a 80BD     		pop	{r7, pc}
 251              	.L16:
 252              		.align	2
 253              	.L15:
 254 001c 85000F40 		.word	1074724997
 255              		.cfi_endproc
 256              	.LFE5:
 257              		.size	Timer_SetInterruptMode, .-Timer_SetInterruptMode
 258              		.section	.text.Timer_SoftwareCapture,"ax",%progbits
 259              		.align	2
 260              		.global	Timer_SoftwareCapture
 261              		.code	16
 262              		.thumb_func
 263              		.type	Timer_SoftwareCapture, %function
 264              	Timer_SoftwareCapture:
 265              	.LFB6:
 283:Generated_Source\PSoC4/Timer.c **** 
 284:Generated_Source\PSoC4/Timer.c **** 
 285:Generated_Source\PSoC4/Timer.c **** /*******************************************************************************
 286:Generated_Source\PSoC4/Timer.c **** * Function Name: Timer_SoftwareCapture
 287:Generated_Source\PSoC4/Timer.c **** ********************************************************************************
 288:Generated_Source\PSoC4/Timer.c **** *
 289:Generated_Source\PSoC4/Timer.c **** * Summary:
 290:Generated_Source\PSoC4/Timer.c **** *  This function forces a capture independent of the capture signal.
 291:Generated_Source\PSoC4/Timer.c **** *
 292:Generated_Source\PSoC4/Timer.c **** * Parameters:
 293:Generated_Source\PSoC4/Timer.c **** *  void
 294:Generated_Source\PSoC4/Timer.c **** *
 295:Generated_Source\PSoC4/Timer.c **** * Return:
 296:Generated_Source\PSoC4/Timer.c **** *  void
 297:Generated_Source\PSoC4/Timer.c **** *
 298:Generated_Source\PSoC4/Timer.c **** * Side Effects:
 299:Generated_Source\PSoC4/Timer.c **** *  An existing hardware capture could be overwritten.
 300:Generated_Source\PSoC4/Timer.c **** *
 301:Generated_Source\PSoC4/Timer.c **** *******************************************************************************/
 302:Generated_Source\PSoC4/Timer.c **** void Timer_SoftwareCapture(void) 
 303:Generated_Source\PSoC4/Timer.c **** {
 266              		.loc 1 303 0
 267              		.cfi_startproc
ARM GAS  C:\Users\Jason\AppData\Local\Temp\ccTWk0TE.s 			page 11


 268              		@ args = 0, pretend = 0, frame = 0
 269              		@ frame_needed = 1, uses_anonymous_args = 0
 270 0000 80B5     		push	{r7, lr}
 271              		.cfi_def_cfa_offset 8
 272              		.cfi_offset 7, -8
 273              		.cfi_offset 14, -4
 274 0002 00AF     		add	r7, sp, #0
 275              		.cfi_def_cfa_register 7
 304:Generated_Source\PSoC4/Timer.c ****     /* Generate a software capture by reading the counter register */
 305:Generated_Source\PSoC4/Timer.c ****     #if(Timer_UsingFixedFunction)
 306:Generated_Source\PSoC4/Timer.c ****         (void)CY_GET_REG16(Timer_COUNTER_LSB_PTR);
 307:Generated_Source\PSoC4/Timer.c ****     #else
 308:Generated_Source\PSoC4/Timer.c ****         (void)CY_GET_REG8(Timer_COUNTER_LSB_PTR_8BIT);
 276              		.loc 1 308 0
 277 0004 024B     		ldr	r3, .L18
 278 0006 1B78     		ldrb	r3, [r3]
 309:Generated_Source\PSoC4/Timer.c ****     #endif/* (Timer_UsingFixedFunction) */
 310:Generated_Source\PSoC4/Timer.c ****     /* Capture Data is now in the FIFO */
 311:Generated_Source\PSoC4/Timer.c **** }
 279              		.loc 1 311 0
 280 0008 C046     		nop
 281 000a BD46     		mov	sp, r7
 282              		@ sp needed
 283 000c 80BD     		pop	{r7, pc}
 284              	.L19:
 285 000e C046     		.align	2
 286              	.L18:
 287 0010 02000F40 		.word	1074724866
 288              		.cfi_endproc
 289              	.LFE6:
 290              		.size	Timer_SoftwareCapture, .-Timer_SoftwareCapture
 291              		.section	.text.Timer_ReadStatusRegister,"ax",%progbits
 292              		.align	2
 293              		.global	Timer_ReadStatusRegister
 294              		.code	16
 295              		.thumb_func
 296              		.type	Timer_ReadStatusRegister, %function
 297              	Timer_ReadStatusRegister:
 298              	.LFB7:
 312:Generated_Source\PSoC4/Timer.c **** 
 313:Generated_Source\PSoC4/Timer.c **** 
 314:Generated_Source\PSoC4/Timer.c **** /*******************************************************************************
 315:Generated_Source\PSoC4/Timer.c **** * Function Name: Timer_ReadStatusRegister
 316:Generated_Source\PSoC4/Timer.c **** ********************************************************************************
 317:Generated_Source\PSoC4/Timer.c **** *
 318:Generated_Source\PSoC4/Timer.c **** * Summary:
 319:Generated_Source\PSoC4/Timer.c **** *  Reads the status register and returns it's state. This function should use
 320:Generated_Source\PSoC4/Timer.c **** *  defined types for the bit-field information as the bits in this register may
 321:Generated_Source\PSoC4/Timer.c **** *  be permuteable.
 322:Generated_Source\PSoC4/Timer.c **** *
 323:Generated_Source\PSoC4/Timer.c **** * Parameters:
 324:Generated_Source\PSoC4/Timer.c **** *  void
 325:Generated_Source\PSoC4/Timer.c **** *
 326:Generated_Source\PSoC4/Timer.c **** * Return:
 327:Generated_Source\PSoC4/Timer.c **** *  The contents of the status register
 328:Generated_Source\PSoC4/Timer.c **** *
 329:Generated_Source\PSoC4/Timer.c **** * Side Effects:
ARM GAS  C:\Users\Jason\AppData\Local\Temp\ccTWk0TE.s 			page 12


 330:Generated_Source\PSoC4/Timer.c **** *  Status register bits may be clear on read.
 331:Generated_Source\PSoC4/Timer.c **** *
 332:Generated_Source\PSoC4/Timer.c **** *******************************************************************************/
 333:Generated_Source\PSoC4/Timer.c **** uint8   Timer_ReadStatusRegister(void) 
 334:Generated_Source\PSoC4/Timer.c **** {
 299              		.loc 1 334 0
 300              		.cfi_startproc
 301              		@ args = 0, pretend = 0, frame = 0
 302              		@ frame_needed = 1, uses_anonymous_args = 0
 303 0000 80B5     		push	{r7, lr}
 304              		.cfi_def_cfa_offset 8
 305              		.cfi_offset 7, -8
 306              		.cfi_offset 14, -4
 307 0002 00AF     		add	r7, sp, #0
 308              		.cfi_def_cfa_register 7
 335:Generated_Source\PSoC4/Timer.c ****     return (Timer_STATUS);
 309              		.loc 1 335 0
 310 0004 024B     		ldr	r3, .L22
 311 0006 1B78     		ldrb	r3, [r3]
 312 0008 DBB2     		uxtb	r3, r3
 336:Generated_Source\PSoC4/Timer.c **** }
 313              		.loc 1 336 0
 314 000a 1800     		movs	r0, r3
 315 000c BD46     		mov	sp, r7
 316              		@ sp needed
 317 000e 80BD     		pop	{r7, pc}
 318              	.L23:
 319              		.align	2
 320              	.L22:
 321 0010 65000F40 		.word	1074724965
 322              		.cfi_endproc
 323              	.LFE7:
 324              		.size	Timer_ReadStatusRegister, .-Timer_ReadStatusRegister
 325              		.section	.text.Timer_ReadControlRegister,"ax",%progbits
 326              		.align	2
 327              		.global	Timer_ReadControlRegister
 328              		.code	16
 329              		.thumb_func
 330              		.type	Timer_ReadControlRegister, %function
 331              	Timer_ReadControlRegister:
 332              	.LFB8:
 337:Generated_Source\PSoC4/Timer.c **** 
 338:Generated_Source\PSoC4/Timer.c **** 
 339:Generated_Source\PSoC4/Timer.c **** #if (!Timer_UDB_CONTROL_REG_REMOVED) /* Remove API if control register is unused */
 340:Generated_Source\PSoC4/Timer.c **** 
 341:Generated_Source\PSoC4/Timer.c **** 
 342:Generated_Source\PSoC4/Timer.c **** /*******************************************************************************
 343:Generated_Source\PSoC4/Timer.c **** * Function Name: Timer_ReadControlRegister
 344:Generated_Source\PSoC4/Timer.c **** ********************************************************************************
 345:Generated_Source\PSoC4/Timer.c **** *
 346:Generated_Source\PSoC4/Timer.c **** * Summary:
 347:Generated_Source\PSoC4/Timer.c **** *  Reads the control register and returns it's value.
 348:Generated_Source\PSoC4/Timer.c **** *
 349:Generated_Source\PSoC4/Timer.c **** * Parameters:
 350:Generated_Source\PSoC4/Timer.c **** *  void
 351:Generated_Source\PSoC4/Timer.c **** *
 352:Generated_Source\PSoC4/Timer.c **** * Return:
ARM GAS  C:\Users\Jason\AppData\Local\Temp\ccTWk0TE.s 			page 13


 353:Generated_Source\PSoC4/Timer.c **** *  The contents of the control register
 354:Generated_Source\PSoC4/Timer.c **** *
 355:Generated_Source\PSoC4/Timer.c **** *******************************************************************************/
 356:Generated_Source\PSoC4/Timer.c **** uint8 Timer_ReadControlRegister(void) 
 357:Generated_Source\PSoC4/Timer.c **** {
 333              		.loc 1 357 0
 334              		.cfi_startproc
 335              		@ args = 0, pretend = 0, frame = 0
 336              		@ frame_needed = 1, uses_anonymous_args = 0
 337 0000 80B5     		push	{r7, lr}
 338              		.cfi_def_cfa_offset 8
 339              		.cfi_offset 7, -8
 340              		.cfi_offset 14, -4
 341 0002 00AF     		add	r7, sp, #0
 342              		.cfi_def_cfa_register 7
 358:Generated_Source\PSoC4/Timer.c ****     #if (!Timer_UDB_CONTROL_REG_REMOVED) 
 359:Generated_Source\PSoC4/Timer.c ****         return ((uint8)Timer_CONTROL);
 343              		.loc 1 359 0
 344 0004 024B     		ldr	r3, .L26
 345 0006 1B78     		ldrb	r3, [r3]
 346 0008 DBB2     		uxtb	r3, r3
 360:Generated_Source\PSoC4/Timer.c ****     #else
 361:Generated_Source\PSoC4/Timer.c ****         return (0);
 362:Generated_Source\PSoC4/Timer.c ****     #endif /* (!Timer_UDB_CONTROL_REG_REMOVED) */
 363:Generated_Source\PSoC4/Timer.c **** }
 347              		.loc 1 363 0
 348 000a 1800     		movs	r0, r3
 349 000c BD46     		mov	sp, r7
 350              		@ sp needed
 351 000e 80BD     		pop	{r7, pc}
 352              	.L27:
 353              		.align	2
 354              	.L26:
 355 0010 73000F40 		.word	1074724979
 356              		.cfi_endproc
 357              	.LFE8:
 358              		.size	Timer_ReadControlRegister, .-Timer_ReadControlRegister
 359              		.section	.text.Timer_WriteControlRegister,"ax",%progbits
 360              		.align	2
 361              		.global	Timer_WriteControlRegister
 362              		.code	16
 363              		.thumb_func
 364              		.type	Timer_WriteControlRegister, %function
 365              	Timer_WriteControlRegister:
 366              	.LFB9:
 364:Generated_Source\PSoC4/Timer.c **** 
 365:Generated_Source\PSoC4/Timer.c **** 
 366:Generated_Source\PSoC4/Timer.c **** /*******************************************************************************
 367:Generated_Source\PSoC4/Timer.c **** * Function Name: Timer_WriteControlRegister
 368:Generated_Source\PSoC4/Timer.c **** ********************************************************************************
 369:Generated_Source\PSoC4/Timer.c **** *
 370:Generated_Source\PSoC4/Timer.c **** * Summary:
 371:Generated_Source\PSoC4/Timer.c **** *  Sets the bit-field of the control register.
 372:Generated_Source\PSoC4/Timer.c **** *
 373:Generated_Source\PSoC4/Timer.c **** * Parameters:
 374:Generated_Source\PSoC4/Timer.c **** *  control: The contents of the control register
 375:Generated_Source\PSoC4/Timer.c **** *
ARM GAS  C:\Users\Jason\AppData\Local\Temp\ccTWk0TE.s 			page 14


 376:Generated_Source\PSoC4/Timer.c **** * Return:
 377:Generated_Source\PSoC4/Timer.c **** *
 378:Generated_Source\PSoC4/Timer.c **** *******************************************************************************/
 379:Generated_Source\PSoC4/Timer.c **** void Timer_WriteControlRegister(uint8 control) 
 380:Generated_Source\PSoC4/Timer.c **** {
 367              		.loc 1 380 0
 368              		.cfi_startproc
 369              		@ args = 0, pretend = 0, frame = 8
 370              		@ frame_needed = 1, uses_anonymous_args = 0
 371 0000 80B5     		push	{r7, lr}
 372              		.cfi_def_cfa_offset 8
 373              		.cfi_offset 7, -8
 374              		.cfi_offset 14, -4
 375 0002 82B0     		sub	sp, sp, #8
 376              		.cfi_def_cfa_offset 16
 377 0004 00AF     		add	r7, sp, #0
 378              		.cfi_def_cfa_register 7
 379 0006 0200     		movs	r2, r0
 380 0008 FB1D     		adds	r3, r7, #7
 381 000a 1A70     		strb	r2, [r3]
 381:Generated_Source\PSoC4/Timer.c ****     #if (!Timer_UDB_CONTROL_REG_REMOVED) 
 382:Generated_Source\PSoC4/Timer.c ****         Timer_CONTROL = control;
 382              		.loc 1 382 0
 383 000c 034A     		ldr	r2, .L29
 384 000e FB1D     		adds	r3, r7, #7
 385 0010 1B78     		ldrb	r3, [r3]
 386 0012 1370     		strb	r3, [r2]
 383:Generated_Source\PSoC4/Timer.c ****     #else
 384:Generated_Source\PSoC4/Timer.c ****         control = 0u;
 385:Generated_Source\PSoC4/Timer.c ****     #endif /* (!Timer_UDB_CONTROL_REG_REMOVED) */
 386:Generated_Source\PSoC4/Timer.c **** }
 387              		.loc 1 386 0
 388 0014 C046     		nop
 389 0016 BD46     		mov	sp, r7
 390 0018 02B0     		add	sp, sp, #8
 391              		@ sp needed
 392 001a 80BD     		pop	{r7, pc}
 393              	.L30:
 394              		.align	2
 395              	.L29:
 396 001c 73000F40 		.word	1074724979
 397              		.cfi_endproc
 398              	.LFE9:
 399              		.size	Timer_WriteControlRegister, .-Timer_WriteControlRegister
 400              		.section	.text.Timer_ReadPeriod,"ax",%progbits
 401              		.align	2
 402              		.global	Timer_ReadPeriod
 403              		.code	16
 404              		.thumb_func
 405              		.type	Timer_ReadPeriod, %function
 406              	Timer_ReadPeriod:
 407              	.LFB10:
 387:Generated_Source\PSoC4/Timer.c **** 
 388:Generated_Source\PSoC4/Timer.c **** #endif /* Remove API if control register is unused */
 389:Generated_Source\PSoC4/Timer.c **** 
 390:Generated_Source\PSoC4/Timer.c **** 
 391:Generated_Source\PSoC4/Timer.c **** /*******************************************************************************
ARM GAS  C:\Users\Jason\AppData\Local\Temp\ccTWk0TE.s 			page 15


 392:Generated_Source\PSoC4/Timer.c **** * Function Name: Timer_ReadPeriod
 393:Generated_Source\PSoC4/Timer.c **** ********************************************************************************
 394:Generated_Source\PSoC4/Timer.c **** *
 395:Generated_Source\PSoC4/Timer.c **** * Summary:
 396:Generated_Source\PSoC4/Timer.c **** *  This function returns the current value of the Period.
 397:Generated_Source\PSoC4/Timer.c **** *
 398:Generated_Source\PSoC4/Timer.c **** * Parameters:
 399:Generated_Source\PSoC4/Timer.c **** *  void
 400:Generated_Source\PSoC4/Timer.c **** *
 401:Generated_Source\PSoC4/Timer.c **** * Return:
 402:Generated_Source\PSoC4/Timer.c **** *  The present value of the counter.
 403:Generated_Source\PSoC4/Timer.c **** *
 404:Generated_Source\PSoC4/Timer.c **** *******************************************************************************/
 405:Generated_Source\PSoC4/Timer.c **** uint32 Timer_ReadPeriod(void) 
 406:Generated_Source\PSoC4/Timer.c **** {
 408              		.loc 1 406 0
 409              		.cfi_startproc
 410              		@ args = 0, pretend = 0, frame = 0
 411              		@ frame_needed = 1, uses_anonymous_args = 0
 412 0000 80B5     		push	{r7, lr}
 413              		.cfi_def_cfa_offset 8
 414              		.cfi_offset 7, -8
 415              		.cfi_offset 14, -4
 416 0002 00AF     		add	r7, sp, #0
 417              		.cfi_def_cfa_register 7
 407:Generated_Source\PSoC4/Timer.c ****    #if(Timer_UsingFixedFunction)
 408:Generated_Source\PSoC4/Timer.c ****        return ((uint32)CY_GET_REG16(Timer_PERIOD_LSB_PTR));
 409:Generated_Source\PSoC4/Timer.c ****    #else
 410:Generated_Source\PSoC4/Timer.c ****        return (CY_GET_REG32(Timer_PERIOD_LSB_PTR));
 418              		.loc 1 410 0
 419 0004 024B     		ldr	r3, .L33
 420 0006 1B68     		ldr	r3, [r3]
 411:Generated_Source\PSoC4/Timer.c ****    #endif /* (Timer_UsingFixedFunction) */
 412:Generated_Source\PSoC4/Timer.c **** }
 421              		.loc 1 412 0
 422 0008 1800     		movs	r0, r3
 423 000a BD46     		mov	sp, r7
 424              		@ sp needed
 425 000c 80BD     		pop	{r7, pc}
 426              	.L34:
 427 000e C046     		.align	2
 428              	.L33:
 429 0010 88200F40 		.word	1074733192
 430              		.cfi_endproc
 431              	.LFE10:
 432              		.size	Timer_ReadPeriod, .-Timer_ReadPeriod
 433              		.section	.text.Timer_WritePeriod,"ax",%progbits
 434              		.align	2
 435              		.global	Timer_WritePeriod
 436              		.code	16
 437              		.thumb_func
 438              		.type	Timer_WritePeriod, %function
 439              	Timer_WritePeriod:
 440              	.LFB11:
 413:Generated_Source\PSoC4/Timer.c **** 
 414:Generated_Source\PSoC4/Timer.c **** 
 415:Generated_Source\PSoC4/Timer.c **** /*******************************************************************************
ARM GAS  C:\Users\Jason\AppData\Local\Temp\ccTWk0TE.s 			page 16


 416:Generated_Source\PSoC4/Timer.c **** * Function Name: Timer_WritePeriod
 417:Generated_Source\PSoC4/Timer.c **** ********************************************************************************
 418:Generated_Source\PSoC4/Timer.c **** *
 419:Generated_Source\PSoC4/Timer.c **** * Summary:
 420:Generated_Source\PSoC4/Timer.c **** *  This function is used to change the period of the counter.  The new period
 421:Generated_Source\PSoC4/Timer.c **** *  will be loaded the next time terminal count is detected.
 422:Generated_Source\PSoC4/Timer.c **** *
 423:Generated_Source\PSoC4/Timer.c **** * Parameters:
 424:Generated_Source\PSoC4/Timer.c **** *  period: This value may be between 1 and (2^Resolution)-1.  A value of 0 will
 425:Generated_Source\PSoC4/Timer.c **** *          result in the counter remaining at zero.
 426:Generated_Source\PSoC4/Timer.c **** *
 427:Generated_Source\PSoC4/Timer.c **** * Return:
 428:Generated_Source\PSoC4/Timer.c **** *  void
 429:Generated_Source\PSoC4/Timer.c **** *
 430:Generated_Source\PSoC4/Timer.c **** *******************************************************************************/
 431:Generated_Source\PSoC4/Timer.c **** void Timer_WritePeriod(uint32 period) 
 432:Generated_Source\PSoC4/Timer.c **** {
 441              		.loc 1 432 0
 442              		.cfi_startproc
 443              		@ args = 0, pretend = 0, frame = 8
 444              		@ frame_needed = 1, uses_anonymous_args = 0
 445 0000 80B5     		push	{r7, lr}
 446              		.cfi_def_cfa_offset 8
 447              		.cfi_offset 7, -8
 448              		.cfi_offset 14, -4
 449 0002 82B0     		sub	sp, sp, #8
 450              		.cfi_def_cfa_offset 16
 451 0004 00AF     		add	r7, sp, #0
 452              		.cfi_def_cfa_register 7
 453 0006 7860     		str	r0, [r7, #4]
 433:Generated_Source\PSoC4/Timer.c ****     #if(Timer_UsingFixedFunction)
 434:Generated_Source\PSoC4/Timer.c ****         uint16 period_temp = (uint16)period;
 435:Generated_Source\PSoC4/Timer.c ****         CY_SET_REG16(Timer_PERIOD_LSB_PTR, period_temp);
 436:Generated_Source\PSoC4/Timer.c ****     #else
 437:Generated_Source\PSoC4/Timer.c ****         CY_SET_REG32(Timer_PERIOD_LSB_PTR, period);
 454              		.loc 1 437 0
 455 0008 034B     		ldr	r3, .L36
 456 000a 7A68     		ldr	r2, [r7, #4]
 457 000c 1A60     		str	r2, [r3]
 438:Generated_Source\PSoC4/Timer.c ****     #endif /*Write Period value with appropriate resolution suffix depending on UDB or fixed functi
 439:Generated_Source\PSoC4/Timer.c **** }
 458              		.loc 1 439 0
 459 000e C046     		nop
 460 0010 BD46     		mov	sp, r7
 461 0012 02B0     		add	sp, sp, #8
 462              		@ sp needed
 463 0014 80BD     		pop	{r7, pc}
 464              	.L37:
 465 0016 C046     		.align	2
 466              	.L36:
 467 0018 88200F40 		.word	1074733192
 468              		.cfi_endproc
 469              	.LFE11:
 470              		.size	Timer_WritePeriod, .-Timer_WritePeriod
 471              		.section	.text.Timer_ReadCapture,"ax",%progbits
 472              		.align	2
 473              		.global	Timer_ReadCapture
ARM GAS  C:\Users\Jason\AppData\Local\Temp\ccTWk0TE.s 			page 17


 474              		.code	16
 475              		.thumb_func
 476              		.type	Timer_ReadCapture, %function
 477              	Timer_ReadCapture:
 478              	.LFB12:
 440:Generated_Source\PSoC4/Timer.c **** 
 441:Generated_Source\PSoC4/Timer.c **** 
 442:Generated_Source\PSoC4/Timer.c **** /*******************************************************************************
 443:Generated_Source\PSoC4/Timer.c **** * Function Name: Timer_ReadCapture
 444:Generated_Source\PSoC4/Timer.c **** ********************************************************************************
 445:Generated_Source\PSoC4/Timer.c **** *
 446:Generated_Source\PSoC4/Timer.c **** * Summary:
 447:Generated_Source\PSoC4/Timer.c **** *  This function returns the last value captured.
 448:Generated_Source\PSoC4/Timer.c **** *
 449:Generated_Source\PSoC4/Timer.c **** * Parameters:
 450:Generated_Source\PSoC4/Timer.c **** *  void
 451:Generated_Source\PSoC4/Timer.c **** *
 452:Generated_Source\PSoC4/Timer.c **** * Return:
 453:Generated_Source\PSoC4/Timer.c **** *  Present Capture value.
 454:Generated_Source\PSoC4/Timer.c **** *
 455:Generated_Source\PSoC4/Timer.c **** *******************************************************************************/
 456:Generated_Source\PSoC4/Timer.c **** uint32 Timer_ReadCapture(void) 
 457:Generated_Source\PSoC4/Timer.c **** {
 479              		.loc 1 457 0
 480              		.cfi_startproc
 481              		@ args = 0, pretend = 0, frame = 0
 482              		@ frame_needed = 1, uses_anonymous_args = 0
 483 0000 80B5     		push	{r7, lr}
 484              		.cfi_def_cfa_offset 8
 485              		.cfi_offset 7, -8
 486              		.cfi_offset 14, -4
 487 0002 00AF     		add	r7, sp, #0
 488              		.cfi_def_cfa_register 7
 458:Generated_Source\PSoC4/Timer.c ****    #if(Timer_UsingFixedFunction)
 459:Generated_Source\PSoC4/Timer.c ****        return ((uint32)CY_GET_REG16(Timer_CAPTURE_LSB_PTR));
 460:Generated_Source\PSoC4/Timer.c ****    #else
 461:Generated_Source\PSoC4/Timer.c ****        return (CY_GET_REG32(Timer_CAPTURE_LSB_PTR));
 489              		.loc 1 461 0
 490 0004 024B     		ldr	r3, .L40
 491 0006 1B68     		ldr	r3, [r3]
 462:Generated_Source\PSoC4/Timer.c ****    #endif /* (Timer_UsingFixedFunction) */
 463:Generated_Source\PSoC4/Timer.c **** }
 492              		.loc 1 463 0
 493 0008 1800     		movs	r0, r3
 494 000a BD46     		mov	sp, r7
 495              		@ sp needed
 496 000c 80BD     		pop	{r7, pc}
 497              	.L41:
 498 000e C046     		.align	2
 499              	.L40:
 500 0010 08210F40 		.word	1074733320
 501              		.cfi_endproc
 502              	.LFE12:
 503              		.size	Timer_ReadCapture, .-Timer_ReadCapture
 504              		.section	.text.Timer_WriteCounter,"ax",%progbits
 505              		.align	2
 506              		.global	Timer_WriteCounter
ARM GAS  C:\Users\Jason\AppData\Local\Temp\ccTWk0TE.s 			page 18


 507              		.code	16
 508              		.thumb_func
 509              		.type	Timer_WriteCounter, %function
 510              	Timer_WriteCounter:
 511              	.LFB13:
 464:Generated_Source\PSoC4/Timer.c **** 
 465:Generated_Source\PSoC4/Timer.c **** 
 466:Generated_Source\PSoC4/Timer.c **** /*******************************************************************************
 467:Generated_Source\PSoC4/Timer.c **** * Function Name: Timer_WriteCounter
 468:Generated_Source\PSoC4/Timer.c **** ********************************************************************************
 469:Generated_Source\PSoC4/Timer.c **** *
 470:Generated_Source\PSoC4/Timer.c **** * Summary:
 471:Generated_Source\PSoC4/Timer.c **** *  This funtion is used to set the counter to a specific value
 472:Generated_Source\PSoC4/Timer.c **** *
 473:Generated_Source\PSoC4/Timer.c **** * Parameters:
 474:Generated_Source\PSoC4/Timer.c **** *  counter:  New counter value.
 475:Generated_Source\PSoC4/Timer.c **** *
 476:Generated_Source\PSoC4/Timer.c **** * Return:
 477:Generated_Source\PSoC4/Timer.c **** *  void
 478:Generated_Source\PSoC4/Timer.c **** *
 479:Generated_Source\PSoC4/Timer.c **** *******************************************************************************/
 480:Generated_Source\PSoC4/Timer.c **** void Timer_WriteCounter(uint32 counter) 
 481:Generated_Source\PSoC4/Timer.c **** {
 512              		.loc 1 481 0
 513              		.cfi_startproc
 514              		@ args = 0, pretend = 0, frame = 8
 515              		@ frame_needed = 1, uses_anonymous_args = 0
 516 0000 80B5     		push	{r7, lr}
 517              		.cfi_def_cfa_offset 8
 518              		.cfi_offset 7, -8
 519              		.cfi_offset 14, -4
 520 0002 82B0     		sub	sp, sp, #8
 521              		.cfi_def_cfa_offset 16
 522 0004 00AF     		add	r7, sp, #0
 523              		.cfi_def_cfa_register 7
 524 0006 7860     		str	r0, [r7, #4]
 482:Generated_Source\PSoC4/Timer.c ****    #if(Timer_UsingFixedFunction)
 483:Generated_Source\PSoC4/Timer.c ****         /* This functionality is removed until a FixedFunction HW update to
 484:Generated_Source\PSoC4/Timer.c ****          * allow this register to be written
 485:Generated_Source\PSoC4/Timer.c ****          */
 486:Generated_Source\PSoC4/Timer.c ****         CY_SET_REG16(Timer_COUNTER_LSB_PTR, (uint16)counter);
 487:Generated_Source\PSoC4/Timer.c ****         
 488:Generated_Source\PSoC4/Timer.c ****     #else
 489:Generated_Source\PSoC4/Timer.c ****         CY_SET_REG32(Timer_COUNTER_LSB_PTR, counter);
 525              		.loc 1 489 0
 526 0008 034B     		ldr	r3, .L43
 527 000a 7A68     		ldr	r2, [r7, #4]
 528 000c 1A60     		str	r2, [r3]
 490:Generated_Source\PSoC4/Timer.c ****     #endif /* Set Write Counter only for the UDB implementation (Write Counter not available in fix
 491:Generated_Source\PSoC4/Timer.c **** }
 529              		.loc 1 491 0
 530 000e C046     		nop
 531 0010 BD46     		mov	sp, r7
 532 0012 02B0     		add	sp, sp, #8
 533              		@ sp needed
 534 0014 80BD     		pop	{r7, pc}
 535              	.L44:
ARM GAS  C:\Users\Jason\AppData\Local\Temp\ccTWk0TE.s 			page 19


 536 0016 C046     		.align	2
 537              	.L43:
 538 0018 08200F40 		.word	1074733064
 539              		.cfi_endproc
 540              	.LFE13:
 541              		.size	Timer_WriteCounter, .-Timer_WriteCounter
 542              		.section	.text.Timer_ReadCounter,"ax",%progbits
 543              		.align	2
 544              		.global	Timer_ReadCounter
 545              		.code	16
 546              		.thumb_func
 547              		.type	Timer_ReadCounter, %function
 548              	Timer_ReadCounter:
 549              	.LFB14:
 492:Generated_Source\PSoC4/Timer.c **** 
 493:Generated_Source\PSoC4/Timer.c **** 
 494:Generated_Source\PSoC4/Timer.c **** /*******************************************************************************
 495:Generated_Source\PSoC4/Timer.c **** * Function Name: Timer_ReadCounter
 496:Generated_Source\PSoC4/Timer.c **** ********************************************************************************
 497:Generated_Source\PSoC4/Timer.c **** *
 498:Generated_Source\PSoC4/Timer.c **** * Summary:
 499:Generated_Source\PSoC4/Timer.c **** *  This function returns the current counter value.
 500:Generated_Source\PSoC4/Timer.c **** *
 501:Generated_Source\PSoC4/Timer.c **** * Parameters:
 502:Generated_Source\PSoC4/Timer.c **** *  void
 503:Generated_Source\PSoC4/Timer.c **** *
 504:Generated_Source\PSoC4/Timer.c **** * Return:
 505:Generated_Source\PSoC4/Timer.c **** *  Present compare value.
 506:Generated_Source\PSoC4/Timer.c **** *
 507:Generated_Source\PSoC4/Timer.c **** *******************************************************************************/
 508:Generated_Source\PSoC4/Timer.c **** uint32 Timer_ReadCounter(void) 
 509:Generated_Source\PSoC4/Timer.c **** {
 550              		.loc 1 509 0
 551              		.cfi_startproc
 552              		@ args = 0, pretend = 0, frame = 0
 553              		@ frame_needed = 1, uses_anonymous_args = 0
 554 0000 80B5     		push	{r7, lr}
 555              		.cfi_def_cfa_offset 8
 556              		.cfi_offset 7, -8
 557              		.cfi_offset 14, -4
 558 0002 00AF     		add	r7, sp, #0
 559              		.cfi_def_cfa_register 7
 510:Generated_Source\PSoC4/Timer.c ****     /* Force capture by reading Accumulator */
 511:Generated_Source\PSoC4/Timer.c ****     /* Must first do a software capture to be able to read the counter */
 512:Generated_Source\PSoC4/Timer.c ****     /* It is up to the user code to make sure there isn't already captured data in the FIFO */
 513:Generated_Source\PSoC4/Timer.c ****     #if(Timer_UsingFixedFunction)
 514:Generated_Source\PSoC4/Timer.c ****         (void)CY_GET_REG16(Timer_COUNTER_LSB_PTR);
 515:Generated_Source\PSoC4/Timer.c ****     #else
 516:Generated_Source\PSoC4/Timer.c ****         (void)CY_GET_REG8(Timer_COUNTER_LSB_PTR_8BIT);
 560              		.loc 1 516 0
 561 0004 034B     		ldr	r3, .L47
 562 0006 1B78     		ldrb	r3, [r3]
 517:Generated_Source\PSoC4/Timer.c ****     #endif/* (Timer_UsingFixedFunction) */
 518:Generated_Source\PSoC4/Timer.c **** 
 519:Generated_Source\PSoC4/Timer.c ****     /* Read the data from the FIFO (or capture register for Fixed Function)*/
 520:Generated_Source\PSoC4/Timer.c ****     #if(Timer_UsingFixedFunction)
 521:Generated_Source\PSoC4/Timer.c ****         return ((uint32)CY_GET_REG16(Timer_CAPTURE_LSB_PTR));
ARM GAS  C:\Users\Jason\AppData\Local\Temp\ccTWk0TE.s 			page 20


 522:Generated_Source\PSoC4/Timer.c ****     #else
 523:Generated_Source\PSoC4/Timer.c ****         return (CY_GET_REG32(Timer_CAPTURE_LSB_PTR));
 563              		.loc 1 523 0
 564 0008 034B     		ldr	r3, .L47+4
 565 000a 1B68     		ldr	r3, [r3]
 524:Generated_Source\PSoC4/Timer.c ****     #endif /* (Timer_UsingFixedFunction) */
 525:Generated_Source\PSoC4/Timer.c **** }
 566              		.loc 1 525 0
 567 000c 1800     		movs	r0, r3
 568 000e BD46     		mov	sp, r7
 569              		@ sp needed
 570 0010 80BD     		pop	{r7, pc}
 571              	.L48:
 572 0012 C046     		.align	2
 573              	.L47:
 574 0014 02000F40 		.word	1074724866
 575 0018 08210F40 		.word	1074733320
 576              		.cfi_endproc
 577              	.LFE14:
 578              		.size	Timer_ReadCounter, .-Timer_ReadCounter
 579              		.section	.text.Timer_ClearFIFO,"ax",%progbits
 580              		.align	2
 581              		.global	Timer_ClearFIFO
 582              		.code	16
 583              		.thumb_func
 584              		.type	Timer_ClearFIFO, %function
 585              	Timer_ClearFIFO:
 586              	.LFB15:
 526:Generated_Source\PSoC4/Timer.c **** 
 527:Generated_Source\PSoC4/Timer.c **** 
 528:Generated_Source\PSoC4/Timer.c **** #if(!Timer_UsingFixedFunction) /* UDB Specific Functions */
 529:Generated_Source\PSoC4/Timer.c **** 
 530:Generated_Source\PSoC4/Timer.c ****     
 531:Generated_Source\PSoC4/Timer.c **** /*******************************************************************************
 532:Generated_Source\PSoC4/Timer.c ****  * The functions below this point are only available using the UDB
 533:Generated_Source\PSoC4/Timer.c ****  * implementation.  If a feature is selected, then the API is enabled.
 534:Generated_Source\PSoC4/Timer.c ****  ******************************************************************************/
 535:Generated_Source\PSoC4/Timer.c **** 
 536:Generated_Source\PSoC4/Timer.c **** 
 537:Generated_Source\PSoC4/Timer.c **** #if (Timer_SoftwareCaptureMode)
 538:Generated_Source\PSoC4/Timer.c **** 
 539:Generated_Source\PSoC4/Timer.c **** 
 540:Generated_Source\PSoC4/Timer.c **** /*******************************************************************************
 541:Generated_Source\PSoC4/Timer.c **** * Function Name: Timer_SetCaptureMode
 542:Generated_Source\PSoC4/Timer.c **** ********************************************************************************
 543:Generated_Source\PSoC4/Timer.c **** *
 544:Generated_Source\PSoC4/Timer.c **** * Summary:
 545:Generated_Source\PSoC4/Timer.c **** *  This function sets the capture mode to either rising or falling edge.
 546:Generated_Source\PSoC4/Timer.c **** *
 547:Generated_Source\PSoC4/Timer.c **** * Parameters:
 548:Generated_Source\PSoC4/Timer.c **** *  captureMode: This parameter sets the capture mode of the UDB capture feature
 549:Generated_Source\PSoC4/Timer.c **** *  The parameter values are defined using the
 550:Generated_Source\PSoC4/Timer.c **** *  #define Timer__B_TIMER__CM_NONE 0
 551:Generated_Source\PSoC4/Timer.c **** #define Timer__B_TIMER__CM_RISINGEDGE 1
 552:Generated_Source\PSoC4/Timer.c **** #define Timer__B_TIMER__CM_FALLINGEDGE 2
 553:Generated_Source\PSoC4/Timer.c **** #define Timer__B_TIMER__CM_EITHEREDGE 3
 554:Generated_Source\PSoC4/Timer.c **** #define Timer__B_TIMER__CM_SOFTWARE 4
ARM GAS  C:\Users\Jason\AppData\Local\Temp\ccTWk0TE.s 			page 21


 555:Generated_Source\PSoC4/Timer.c ****  identifiers
 556:Generated_Source\PSoC4/Timer.c **** *  The following are the possible values of the parameter
 557:Generated_Source\PSoC4/Timer.c **** *  Timer__B_TIMER__CM_NONE        - Set Capture mode to None
 558:Generated_Source\PSoC4/Timer.c **** *  Timer__B_TIMER__CM_RISINGEDGE  - Rising edge of Capture input
 559:Generated_Source\PSoC4/Timer.c **** *  Timer__B_TIMER__CM_FALLINGEDGE - Falling edge of Capture input
 560:Generated_Source\PSoC4/Timer.c **** *  Timer__B_TIMER__CM_EITHEREDGE  - Either edge of Capture input
 561:Generated_Source\PSoC4/Timer.c **** *
 562:Generated_Source\PSoC4/Timer.c **** * Return:
 563:Generated_Source\PSoC4/Timer.c **** *  void
 564:Generated_Source\PSoC4/Timer.c **** *
 565:Generated_Source\PSoC4/Timer.c **** *******************************************************************************/
 566:Generated_Source\PSoC4/Timer.c **** void Timer_SetCaptureMode(uint8 captureMode) 
 567:Generated_Source\PSoC4/Timer.c **** {
 568:Generated_Source\PSoC4/Timer.c ****     /* This must only set to two bits of the control register associated */
 569:Generated_Source\PSoC4/Timer.c ****     captureMode = ((uint8)((uint8)captureMode << Timer_CTRL_CAP_MODE_SHIFT));
 570:Generated_Source\PSoC4/Timer.c ****     captureMode &= (Timer_CTRL_CAP_MODE_MASK);
 571:Generated_Source\PSoC4/Timer.c **** 
 572:Generated_Source\PSoC4/Timer.c ****     #if (!Timer_UDB_CONTROL_REG_REMOVED)
 573:Generated_Source\PSoC4/Timer.c ****         /* Clear the Current Setting */
 574:Generated_Source\PSoC4/Timer.c ****         Timer_CONTROL &= ((uint8)(~Timer_CTRL_CAP_MODE_MASK));
 575:Generated_Source\PSoC4/Timer.c **** 
 576:Generated_Source\PSoC4/Timer.c ****         /* Write The New Setting */
 577:Generated_Source\PSoC4/Timer.c ****         Timer_CONTROL |= captureMode;
 578:Generated_Source\PSoC4/Timer.c ****     #endif /* (!Timer_UDB_CONTROL_REG_REMOVED) */
 579:Generated_Source\PSoC4/Timer.c **** }
 580:Generated_Source\PSoC4/Timer.c **** #endif /* Remove API if Capture Mode is not Software Controlled */
 581:Generated_Source\PSoC4/Timer.c **** 
 582:Generated_Source\PSoC4/Timer.c **** 
 583:Generated_Source\PSoC4/Timer.c **** #if (Timer_SoftwareTriggerMode)
 584:Generated_Source\PSoC4/Timer.c **** 
 585:Generated_Source\PSoC4/Timer.c **** 
 586:Generated_Source\PSoC4/Timer.c **** /*******************************************************************************
 587:Generated_Source\PSoC4/Timer.c **** * Function Name: Timer_SetTriggerMode
 588:Generated_Source\PSoC4/Timer.c **** ********************************************************************************
 589:Generated_Source\PSoC4/Timer.c **** *
 590:Generated_Source\PSoC4/Timer.c **** * Summary:
 591:Generated_Source\PSoC4/Timer.c **** *  This function sets the trigger input mode
 592:Generated_Source\PSoC4/Timer.c **** *
 593:Generated_Source\PSoC4/Timer.c **** * Parameters:
 594:Generated_Source\PSoC4/Timer.c **** *  triggerMode: Pass one of the pre-defined Trigger Modes (except Software)
 595:Generated_Source\PSoC4/Timer.c ****     #define Timer__B_TIMER__TM_NONE 0x00u
 596:Generated_Source\PSoC4/Timer.c ****     #define Timer__B_TIMER__TM_RISINGEDGE 0x04u
 597:Generated_Source\PSoC4/Timer.c ****     #define Timer__B_TIMER__TM_FALLINGEDGE 0x08u
 598:Generated_Source\PSoC4/Timer.c ****     #define Timer__B_TIMER__TM_EITHEREDGE 0x0Cu
 599:Generated_Source\PSoC4/Timer.c ****     #define Timer__B_TIMER__TM_SOFTWARE 0x10u
 600:Generated_Source\PSoC4/Timer.c **** *
 601:Generated_Source\PSoC4/Timer.c **** * Return:
 602:Generated_Source\PSoC4/Timer.c **** *  void
 603:Generated_Source\PSoC4/Timer.c **** *
 604:Generated_Source\PSoC4/Timer.c **** *******************************************************************************/
 605:Generated_Source\PSoC4/Timer.c **** void Timer_SetTriggerMode(uint8 triggerMode) 
 606:Generated_Source\PSoC4/Timer.c **** {
 607:Generated_Source\PSoC4/Timer.c ****     /* This must only set to two bits of the control register associated */
 608:Generated_Source\PSoC4/Timer.c ****     triggerMode &= Timer_CTRL_TRIG_MODE_MASK;
 609:Generated_Source\PSoC4/Timer.c **** 
 610:Generated_Source\PSoC4/Timer.c ****     #if (!Timer_UDB_CONTROL_REG_REMOVED)   /* Remove assignment if control register is removed */
 611:Generated_Source\PSoC4/Timer.c ****     
ARM GAS  C:\Users\Jason\AppData\Local\Temp\ccTWk0TE.s 			page 22


 612:Generated_Source\PSoC4/Timer.c ****         /* Clear the Current Setting */
 613:Generated_Source\PSoC4/Timer.c ****         Timer_CONTROL &= ((uint8)(~Timer_CTRL_TRIG_MODE_MASK));
 614:Generated_Source\PSoC4/Timer.c **** 
 615:Generated_Source\PSoC4/Timer.c ****         /* Write The New Setting */
 616:Generated_Source\PSoC4/Timer.c ****         Timer_CONTROL |= (triggerMode | Timer__B_TIMER__TM_SOFTWARE);
 617:Generated_Source\PSoC4/Timer.c ****     #endif /* Remove code section if control register is not used */
 618:Generated_Source\PSoC4/Timer.c **** }
 619:Generated_Source\PSoC4/Timer.c **** #endif /* Remove API if Trigger Mode is not Software Controlled */
 620:Generated_Source\PSoC4/Timer.c **** 
 621:Generated_Source\PSoC4/Timer.c **** #if (Timer_EnableTriggerMode)
 622:Generated_Source\PSoC4/Timer.c **** 
 623:Generated_Source\PSoC4/Timer.c **** 
 624:Generated_Source\PSoC4/Timer.c **** /*******************************************************************************
 625:Generated_Source\PSoC4/Timer.c **** * Function Name: Timer_EnableTrigger
 626:Generated_Source\PSoC4/Timer.c **** ********************************************************************************
 627:Generated_Source\PSoC4/Timer.c **** *
 628:Generated_Source\PSoC4/Timer.c **** * Summary:
 629:Generated_Source\PSoC4/Timer.c **** *  Sets the control bit enabling Hardware Trigger mode
 630:Generated_Source\PSoC4/Timer.c **** *
 631:Generated_Source\PSoC4/Timer.c **** * Parameters:
 632:Generated_Source\PSoC4/Timer.c **** *  void
 633:Generated_Source\PSoC4/Timer.c **** *
 634:Generated_Source\PSoC4/Timer.c **** * Return:
 635:Generated_Source\PSoC4/Timer.c **** *  void
 636:Generated_Source\PSoC4/Timer.c **** *
 637:Generated_Source\PSoC4/Timer.c **** *******************************************************************************/
 638:Generated_Source\PSoC4/Timer.c **** void Timer_EnableTrigger(void) 
 639:Generated_Source\PSoC4/Timer.c **** {
 640:Generated_Source\PSoC4/Timer.c ****     #if (!Timer_UDB_CONTROL_REG_REMOVED)   /* Remove assignment if control register is removed */
 641:Generated_Source\PSoC4/Timer.c ****         Timer_CONTROL |= Timer_CTRL_TRIG_EN;
 642:Generated_Source\PSoC4/Timer.c ****     #endif /* Remove code section if control register is not used */
 643:Generated_Source\PSoC4/Timer.c **** }
 644:Generated_Source\PSoC4/Timer.c **** 
 645:Generated_Source\PSoC4/Timer.c **** 
 646:Generated_Source\PSoC4/Timer.c **** /*******************************************************************************
 647:Generated_Source\PSoC4/Timer.c **** * Function Name: Timer_DisableTrigger
 648:Generated_Source\PSoC4/Timer.c **** ********************************************************************************
 649:Generated_Source\PSoC4/Timer.c **** *
 650:Generated_Source\PSoC4/Timer.c **** * Summary:
 651:Generated_Source\PSoC4/Timer.c **** *  Clears the control bit enabling Hardware Trigger mode
 652:Generated_Source\PSoC4/Timer.c **** *
 653:Generated_Source\PSoC4/Timer.c **** * Parameters:
 654:Generated_Source\PSoC4/Timer.c **** *  void
 655:Generated_Source\PSoC4/Timer.c **** *
 656:Generated_Source\PSoC4/Timer.c **** * Return:
 657:Generated_Source\PSoC4/Timer.c **** *  void
 658:Generated_Source\PSoC4/Timer.c **** *
 659:Generated_Source\PSoC4/Timer.c **** *******************************************************************************/
 660:Generated_Source\PSoC4/Timer.c **** void Timer_DisableTrigger(void) 
 661:Generated_Source\PSoC4/Timer.c **** {
 662:Generated_Source\PSoC4/Timer.c ****     #if (!Timer_UDB_CONTROL_REG_REMOVED )   /* Remove assignment if control register is removed */
 663:Generated_Source\PSoC4/Timer.c ****         Timer_CONTROL &= ((uint8)(~Timer_CTRL_TRIG_EN));
 664:Generated_Source\PSoC4/Timer.c ****     #endif /* Remove code section if control register is not used */
 665:Generated_Source\PSoC4/Timer.c **** }
 666:Generated_Source\PSoC4/Timer.c **** #endif /* Remove API is Trigger Mode is set to None */
 667:Generated_Source\PSoC4/Timer.c **** 
 668:Generated_Source\PSoC4/Timer.c **** #if(Timer_InterruptOnCaptureCount)
ARM GAS  C:\Users\Jason\AppData\Local\Temp\ccTWk0TE.s 			page 23


 669:Generated_Source\PSoC4/Timer.c **** 
 670:Generated_Source\PSoC4/Timer.c **** 
 671:Generated_Source\PSoC4/Timer.c **** /*******************************************************************************
 672:Generated_Source\PSoC4/Timer.c **** * Function Name: Timer_SetInterruptCount
 673:Generated_Source\PSoC4/Timer.c **** ********************************************************************************
 674:Generated_Source\PSoC4/Timer.c **** *
 675:Generated_Source\PSoC4/Timer.c **** * Summary:
 676:Generated_Source\PSoC4/Timer.c **** *  This function sets the capture count before an interrupt is triggered.
 677:Generated_Source\PSoC4/Timer.c **** *
 678:Generated_Source\PSoC4/Timer.c **** * Parameters:
 679:Generated_Source\PSoC4/Timer.c **** *  interruptCount:  A value between 0 and 3 is valid.  If the value is 0, then
 680:Generated_Source\PSoC4/Timer.c **** *                   an interrupt will occur each time a capture occurs.
 681:Generated_Source\PSoC4/Timer.c **** *                   A value of 1 to 3 will cause the interrupt
 682:Generated_Source\PSoC4/Timer.c **** *                   to delay by the same number of captures.
 683:Generated_Source\PSoC4/Timer.c **** *
 684:Generated_Source\PSoC4/Timer.c **** * Return:
 685:Generated_Source\PSoC4/Timer.c **** *  void
 686:Generated_Source\PSoC4/Timer.c **** *
 687:Generated_Source\PSoC4/Timer.c **** *******************************************************************************/
 688:Generated_Source\PSoC4/Timer.c **** void Timer_SetInterruptCount(uint8 interruptCount) 
 689:Generated_Source\PSoC4/Timer.c **** {
 690:Generated_Source\PSoC4/Timer.c ****     /* This must only set to two bits of the control register associated */
 691:Generated_Source\PSoC4/Timer.c ****     interruptCount &= Timer_CTRL_INTCNT_MASK;
 692:Generated_Source\PSoC4/Timer.c **** 
 693:Generated_Source\PSoC4/Timer.c ****     #if (!Timer_UDB_CONTROL_REG_REMOVED)
 694:Generated_Source\PSoC4/Timer.c ****         /* Clear the Current Setting */
 695:Generated_Source\PSoC4/Timer.c ****         Timer_CONTROL &= ((uint8)(~Timer_CTRL_INTCNT_MASK));
 696:Generated_Source\PSoC4/Timer.c ****         /* Write The New Setting */
 697:Generated_Source\PSoC4/Timer.c ****         Timer_CONTROL |= interruptCount;
 698:Generated_Source\PSoC4/Timer.c ****     #endif /* (!Timer_UDB_CONTROL_REG_REMOVED) */
 699:Generated_Source\PSoC4/Timer.c **** }
 700:Generated_Source\PSoC4/Timer.c **** #endif /* Timer_InterruptOnCaptureCount */
 701:Generated_Source\PSoC4/Timer.c **** 
 702:Generated_Source\PSoC4/Timer.c **** 
 703:Generated_Source\PSoC4/Timer.c **** #if (Timer_UsingHWCaptureCounter)
 704:Generated_Source\PSoC4/Timer.c **** 
 705:Generated_Source\PSoC4/Timer.c **** 
 706:Generated_Source\PSoC4/Timer.c **** /*******************************************************************************
 707:Generated_Source\PSoC4/Timer.c **** * Function Name: Timer_SetCaptureCount
 708:Generated_Source\PSoC4/Timer.c **** ********************************************************************************
 709:Generated_Source\PSoC4/Timer.c **** *
 710:Generated_Source\PSoC4/Timer.c **** * Summary:
 711:Generated_Source\PSoC4/Timer.c **** *  This function sets the capture count
 712:Generated_Source\PSoC4/Timer.c **** *
 713:Generated_Source\PSoC4/Timer.c **** * Parameters:
 714:Generated_Source\PSoC4/Timer.c **** *  captureCount: A value between 2 and 127 inclusive is valid.  A value of 1
 715:Generated_Source\PSoC4/Timer.c **** *                to 127 will cause the interrupt to delay by the same number of
 716:Generated_Source\PSoC4/Timer.c **** *                captures.
 717:Generated_Source\PSoC4/Timer.c **** *
 718:Generated_Source\PSoC4/Timer.c **** * Return:
 719:Generated_Source\PSoC4/Timer.c **** *  void
 720:Generated_Source\PSoC4/Timer.c **** *
 721:Generated_Source\PSoC4/Timer.c **** *******************************************************************************/
 722:Generated_Source\PSoC4/Timer.c **** void Timer_SetCaptureCount(uint8 captureCount) 
 723:Generated_Source\PSoC4/Timer.c **** {
 724:Generated_Source\PSoC4/Timer.c ****     Timer_CAP_COUNT = captureCount;
 725:Generated_Source\PSoC4/Timer.c **** }
ARM GAS  C:\Users\Jason\AppData\Local\Temp\ccTWk0TE.s 			page 24


 726:Generated_Source\PSoC4/Timer.c **** 
 727:Generated_Source\PSoC4/Timer.c **** 
 728:Generated_Source\PSoC4/Timer.c **** /*******************************************************************************
 729:Generated_Source\PSoC4/Timer.c **** * Function Name: Timer_ReadCaptureCount
 730:Generated_Source\PSoC4/Timer.c **** ********************************************************************************
 731:Generated_Source\PSoC4/Timer.c **** *
 732:Generated_Source\PSoC4/Timer.c **** * Summary:
 733:Generated_Source\PSoC4/Timer.c **** *  This function reads the capture count setting
 734:Generated_Source\PSoC4/Timer.c **** *
 735:Generated_Source\PSoC4/Timer.c **** * Parameters:
 736:Generated_Source\PSoC4/Timer.c **** *  void
 737:Generated_Source\PSoC4/Timer.c **** *
 738:Generated_Source\PSoC4/Timer.c **** * Return:
 739:Generated_Source\PSoC4/Timer.c **** *  Returns the Capture Count Setting
 740:Generated_Source\PSoC4/Timer.c **** *
 741:Generated_Source\PSoC4/Timer.c **** *******************************************************************************/
 742:Generated_Source\PSoC4/Timer.c **** uint8 Timer_ReadCaptureCount(void) 
 743:Generated_Source\PSoC4/Timer.c **** {
 744:Generated_Source\PSoC4/Timer.c ****     return ((uint8)Timer_CAP_COUNT);
 745:Generated_Source\PSoC4/Timer.c **** }
 746:Generated_Source\PSoC4/Timer.c **** #endif /* Timer_UsingHWCaptureCounter */
 747:Generated_Source\PSoC4/Timer.c **** 
 748:Generated_Source\PSoC4/Timer.c **** 
 749:Generated_Source\PSoC4/Timer.c **** /*******************************************************************************
 750:Generated_Source\PSoC4/Timer.c **** * Function Name: Timer_ClearFIFO
 751:Generated_Source\PSoC4/Timer.c **** ********************************************************************************
 752:Generated_Source\PSoC4/Timer.c **** *
 753:Generated_Source\PSoC4/Timer.c **** * Summary:
 754:Generated_Source\PSoC4/Timer.c **** *  This function clears all capture data from the capture FIFO
 755:Generated_Source\PSoC4/Timer.c **** *
 756:Generated_Source\PSoC4/Timer.c **** * Parameters:
 757:Generated_Source\PSoC4/Timer.c **** *  void
 758:Generated_Source\PSoC4/Timer.c **** *
 759:Generated_Source\PSoC4/Timer.c **** * Return:
 760:Generated_Source\PSoC4/Timer.c **** *  void
 761:Generated_Source\PSoC4/Timer.c **** *
 762:Generated_Source\PSoC4/Timer.c **** *******************************************************************************/
 763:Generated_Source\PSoC4/Timer.c **** void Timer_ClearFIFO(void) 
 764:Generated_Source\PSoC4/Timer.c **** {
 587              		.loc 1 764 0
 588              		.cfi_startproc
 589              		@ args = 0, pretend = 0, frame = 0
 590              		@ frame_needed = 1, uses_anonymous_args = 0
 591 0000 80B5     		push	{r7, lr}
 592              		.cfi_def_cfa_offset 8
 593              		.cfi_offset 7, -8
 594              		.cfi_offset 14, -4
 595 0002 00AF     		add	r7, sp, #0
 596              		.cfi_def_cfa_register 7
 765:Generated_Source\PSoC4/Timer.c ****     while(0u != (Timer_ReadStatusRegister() & Timer_STATUS_FIFONEMP))
 597              		.loc 1 765 0
 598 0004 01E0     		b	.L50
 599              	.L51:
 766:Generated_Source\PSoC4/Timer.c ****     {
 767:Generated_Source\PSoC4/Timer.c ****         (void)Timer_ReadCapture();
 600              		.loc 1 767 0
 601 0006 FFF7FEFF 		bl	Timer_ReadCapture
ARM GAS  C:\Users\Jason\AppData\Local\Temp\ccTWk0TE.s 			page 25


 602              	.L50:
 765:Generated_Source\PSoC4/Timer.c ****     while(0u != (Timer_ReadStatusRegister() & Timer_STATUS_FIFONEMP))
 603              		.loc 1 765 0
 604 000a FFF7FEFF 		bl	Timer_ReadStatusRegister
 605 000e 0300     		movs	r3, r0
 606 0010 1A00     		movs	r2, r3
 607 0012 0823     		movs	r3, #8
 608 0014 1340     		ands	r3, r2
 609 0016 F6D1     		bne	.L51
 768:Generated_Source\PSoC4/Timer.c ****     }
 769:Generated_Source\PSoC4/Timer.c **** }
 610              		.loc 1 769 0
 611 0018 C046     		nop
 612 001a BD46     		mov	sp, r7
 613              		@ sp needed
 614 001c 80BD     		pop	{r7, pc}
 615              		.cfi_endproc
 616              	.LFE15:
 617              		.size	Timer_ClearFIFO, .-Timer_ClearFIFO
 618 001e C046     		.text
 619              	.Letext0:
 620              		.file 2 "Generated_Source\\PSoC4\\cytypes.h"